Certificate:
    Data:
        Version: 3 (0x2)
        Serial Number:
            ec:92:f2:f6:e5:ac:f1:6a
        Signature Algorithm: sha384WithRSAEncryption
        Issuer: C=US, ST=District of Columbia, L=Washington, O=Wireless Innovation Forum, OU=www.wirelessinnovation.org, CN=WInnForum RSA PAL CA-1
        Validity
            Not Before: Jun 30 16:38:04 2016 GMT
            Not After : Sep 28 16:38:04 2019 GMT
        Subject: C=US, ST=District of Columbia, L=Washington, O=Wireless Innovation Forum, OU=www.wirelessinnovation.org, CN=PAL End-Entity Example
        Subject Public Key Info:
            Public Key Algorithm: rsaEncryption
            RSA Public Key: (2048 bit)
                Modulus (2048 bit):
                    00:a1:0b:b2:2c:7d:71:87:27:fe:14:bc:6a:cd:1f:
                    9c:76:ee:c8:bf:89:b2:60:cf:3b:06:80:06:0c:25:
                    b4:48:42:d4:da:1d:8d:38:87:a8:22:dc:93:41:e9:
                    c2:8e:5a:d6:ff:f6:d9:6e:35:8c:c7:fc:e4:3f:9c:
                    a5:d2:d5:1d:ed:a3:c9:d6:46:d2:32:2d:1a:08:91:
                    f3:86:0f:4f:7d:35:79:a4:18:09:2f:cd:3e:b2:1d:
                    6b:89:d7:70:ae:32:29:ad:ef:78:4b:42:eb:bf:22:
                    03:fd:7b:82:c7:3e:bf:c9:d3:39:28:e9:82:ef:41:
                    4f:d6:9b:88:5b:b9:3b:21:c2:87:34:04:f5:14:8c:
                    4a:d6:69:81:65:24:dc:7e:b0:52:4a:af:ae:36:fa:
                    cc:6b:ae:60:14:a9:2b:c1:b4:64:da:64:e6:a6:d0:
                    cc:c1:63:4b:d7:42:9f:48:3c:11:13:f7:e3:70:fa:
                    5a:46:01:c3:33:15:d0:5f:b1:26:91:83:a2:e8:17:
                    25:1e:4b:41:f3:2c:0d:43:0a:96:6c:c8:08:8c:17:
                    55:a1:db:ce:6b:bd:e7:61:29:fa:0e:cf:6a:4c:c4:
                    ce:91:8c:55:bb:ca:6a:19:86:d9:0f:8c:4a:65:30:
                    b0:38:85:35:70:70:f7:1a:59:60:9a:ae:2b:82:6d:
                    d1:cf
                Exponent: 65537 (0x10001)
        X509v3 extensions:
            X509v3 Subject Key Identifier: 
                C1:6F:EC:C7:BE:C5:F1:7D:15:E7:BF:D3:ED:C6:7F:9F:37:A2:22:D9
            X509v3 Authority Key Identifier: 
                keyid:A2:40:D5:9B:EE:D3:24:B7:40:35:39:5C:1A:70:B5:91:2D:A6:B8:A0

            X509v3 Basic Constraints: 
                CA:FALSE
            X509v3 Key Usage: critical
                Digital Signature, Key Encipherment
            X509v3 Extended Key Usage: 
                TLS Web Server Authentication
            ROLE: 
                ..PAL
    Signature Algorithm: sha384WithRSAEncryption
        50:e4:89:27:fb:cc:81:99:ed:0b:e8:4d:54:2e:24:7f:14:1d:
        73:e0:87:6a:92:de:ac:df:38:24:a1:4c:2d:82:4e:f4:03:de:
        87:9e:cc:84:ba:4c:17:ea:3c:eb:f6:a2:48:de:50:4b:d8:21:
        0c:c8:41:a9:fb:c1:23:1a:09:9c:9e:ce:c2:b0:dc:e1:83:ce:
        c5:04:96:33:15:80:f9:7a:5d:11:35:03:1a:c0:44:03:11:5f:
        54:d6:62:be:af:fc:55:42:3a:40:63:d4:16:ec:ae:e4:e7:4e:
        43:c6:54:ef:d9:93:fc:92:f4:c1:4a:6a:fd:29:35:90:19:7e:
        0b:ae:00:c8:e7:11:27:9b:2a:b6:cd:f1:d1:4c:39:fd:4c:d6:
        6e:66:45:b2:6c:ad:75:2a:c7:fc:7a:d6:22:18:fb:90:37:06:
        82:95:42:ad:4d:cf:66:fc:e7:8d:4a:dd:67:66:e1:e0:a8:4e:
        23:93:a8:86:0d:97:61:3b:9f:24:88:d3:3a:67:82:e6:9b:e6:
        65:48:90:b0:00:ae:22:b8:76:07:15:2f:0a:4b:fa:bf:df:ee:
        6f:89:75:66:5a:f8:70:01:11:2e:fc:fc:9d:eb:74:20:17:a0:
        b3:61:bd:04:1a:d5:e2:d4:68:14:4a:b2:1c:cc:fd:41:d9:c7:
        83:96:e5:08:eb:61:d2:f3:c4:d7:dd:5c:00:0b:ba:d2:3b:48:
        78:fe:38:0b:aa:99:48:b1:87:e2:96:04:d2:25:41:af:bf:94:
        33:07:e9:3e:d3:09:5d:c5:43:63:80:b2:6c:95:53:03:e9:ba:
        03:eb:1d:14:29:b6:6a:f6:75:75:28:c8:d3:f8:1d:88:40:18:
        a0:b4:0e:68:88:af:cf:ff:5b:14:7e:d7:84:42:fa:6a:48:08:
        f5:69:ee:91:c8:a7:cb:c6:01:32:22:eb:91:61:91:aa:4e:6f:
        7f:30:ec:a6:e6:b2:7d:dc:c1:82:26:e2:69:fb:85:3d:2e:ad:
        09:ae:a9:eb:cd:9f:3b:f1:b6:89:3c:3c:b7:fd:cc:71:a6:20:
        d7:f1:f7:6c:e1:4d:85:15:e3:15:eb:94:f0:1a:5c:d1:11:69:
        c6:8c:98:03:c6:f0:c6:97:1e:d4:0d:f8:52:51:44:76:c9:53:
        34:38:39:b8:18:b2:eb:1d:ea:60:d5:19:4d:32:6f:ca:88:62:
        0b:fa:00:15:f9:bc:7d:0e:43:02:77:5b:83:bd:02:42:da:66:
        c7:09:a8:90:c5:c0:8f:82:04:3c:61:66:29:22:06:19:bd:b8:
        f3:73:39:6b:11:ad:3f:93:07:d0:6f:78:c0:64:1c:50:15:a0:
        39:9e:3a:30:68:19:96:4b
-----BEGIN CERTIFICATE-----
MIIFZDCCA0ygAwIBAgIJAOyS8vblrPFqMA0GCSqGSIb3DQEBDAUAMIGrMQswCQYD
VQQGEwJVUzEdMBsGA1UECAwURGlzdHJpY3Qgb2YgQ29sdW1iaWExEzARBgNVBAcM
Cldhc2hpbmd0b24xIjAgBgNVBAoMGVdpcmVsZXNzIElubm92YXRpb24gRm9ydW0x
IzAhBgNVBAsMGnd3dy53aXJlbGVzc2lubm92YXRpb24ub3JnMR8wHQYDVQQDDBZX
SW5uRm9ydW0gUlNBIFBBTCBDQS0xMB4XDTE2MDYzMDE2MzgwNFoXDTE5MDkyODE2
MzgwNFowgasxCzAJBgNVBAYTAlVTMR0wGwYDVQQIDBREaXN0cmljdCBvZiBDb2x1
bWJpYTETMBEGA1UEBwwKV2FzaGluZ3RvbjEiMCAGA1UECgwZV2lyZWxlc3MgSW5u
b3ZhdGlvbiBGb3J1bTEjMCEGA1UECwwad3d3LndpcmVsZXNzaW5ub3ZhdGlvbi5v
cmcxHzAdBgNVBAMMFlBBTCBFbmQtRW50aXR5IEV4YW1wbGUwggEiMA0GCSqGSIb3
DQEBAQUAA4IBDwAwggEKAoIBAQChC7IsfXGHJ/4UvGrNH5x27si/ibJgzzsGgAYM
JbRIQtTaHY04h6gi3JNB6cKOWtb/9tluNYzH/OQ/nKXS1R3to8nWRtIyLRoIkfOG
D099NXmkGAkvzT6yHWuJ13CuMimt73hLQuu/IgP9e4LHPr/J0zko6YLvQU/Wm4hb
uTshwoc0BPUUjErWaYFlJNx+sFJKr642+sxrrmAUqSvBtGTaZOam0MzBY0vXQp9I
PBET9+Nw+lpGAcMzFdBfsSaRg6LoFyUeS0HzLA1DCpZsyAiMF1Wh285rvedhKfoO
z2pMxM6RjFW7ymoZhtkPjEplMLA4hTVwcPcaWWCariuCbdHPAgMBAAGjgYgwgYUw
HQYDVR0OBBYEFMFv7Me+xfF9Fee/0+3Gf583oiLZMB8GA1UdIwQYMBaAFKJA1Zvu
0yS3QDU5XBpwtZEtprigMAkGA1UdEwQCMAAwDgYDVR0PAQH/BAQDAgWgMBMGA1Ud
JQQMMAoGCCsGAQUFBwMBMBMGCisGAQQBguwRAQEEBQwDUEFMMA0GCSqGSIb3DQEB
DAUAA4ICAQBQ5Ikn+8yBme0L6E1ULiR/FB1z4Idqkt6s3zgkoUwtgk70A96HnsyE
ukwX6jzr9qJI3lBL2CEMyEGp+8EjGgmcns7CsNzhg87FBJYzFYD5el0RNQMawEQD
EV9U1mK+r/xVQjpAY9QW7K7k505DxlTv2ZP8kvTBSmr9KTWQGX4LrgDI5xEnmyq2
zfHRTDn9TNZuZkWybK11Ksf8etYiGPuQNwaClUKtTc9m/OeNSt1nZuHgqE4jk6iG
DZdhO58kiNM6Z4Lmm+ZlSJCwAK4iuHYHFS8KS/q/3+5viXVmWvhwAREu/Pyd63Qg
F6CzYb0EGtXi1GgUSrIczP1B2ceDluUI62HS88TX3VwAC7rSO0h4/jgLqplIsYfi
lgTSJUGvv5QzB+k+0wldxUNjgLJslVMD6boD6x0UKbZq9nV1KMjT+B2IQBigtA5o
iK/P/1sUfteEQvpqSAj1ae6RyKfLxgEyIuuRYZGqTm9/MOym5rJ93MGCJuJp+4U9
Lq0JrqnrzZ878baJPDy3/cxxpiDX8fds4U2FFeMV65TwGlzREWnGjJgDxvDGlx7U
DfhSUUR2yVM0ODm4GLLrHepg1RlNMm/KiGIL+gAV+bx9DkMCd1uDvQJC2mbHCaiQ
xcCPggQ8YWYpIgYZvbjzczlrEa0/kwfQb3jAZBxQFaA5njowaBmWSw==
-----END CERTIFICATE-----
