Certificate:
    Data:
        Version: 3 (0x2)
        Serial Number:
            ec:92:f2:f6:e5:ac:f1:6b
        Signature Algorithm: sha384WithRSAEncryption
        Issuer: C=US, ST=District of Columbia, L=Washington, O=Wireless Innovation Forum, OU=www.wirelessinnovation.org, CN=WInnForum RSA Root CA-1
        Validity
            Not Before: Jun 30 16:38:07 2016 GMT
            Not After : Jun 27 16:38:07 2031 GMT
        Subject: C=US, ST=District of Columbia, L=Washington, O=Wireless Innovation Forum, OU=www.wirelessinnovation.org, CN=WInnForum RSA Device Manufacturer CA-1
        Subject Public Key Info:
            Public Key Algorithm: rsaEncryption
            RSA Public Key: (4096 bit)
                Modulus (4096 bit):
                    00:b5:cf:2d:d0:25:ce:d0:36:00:04:f9:c4:59:d6:
                    97:4b:76:7a:d6:5d:e6:29:1f:4b:d9:e9:99:bc:5d:
                    b6:e3:5d:17:6d:f7:dc:b0:a2:b6:b5:f8:b8:04:ec:
                    cb:ff:de:e2:da:19:67:1b:1b:a1:01:22:26:1f:d5:
                    e1:9f:cd:d5:ab:95:bb:b8:03:3a:c8:92:fc:d3:e4:
                    98:a4:14:82:6e:94:38:da:58:41:0a:fc:5b:be:bf:
                    e5:6c:b0:3b:94:45:08:cc:0d:16:dc:ab:3e:54:ba:
                    29:59:ca:97:65:98:92:4c:4c:95:79:d7:dd:0c:f2:
                    5c:03:0c:5e:e0:85:99:96:3b:1b:ba:62:17:5f:92:
                    e6:65:3b:e7:d2:b2:23:83:05:a4:c0:5d:92:0c:b0:
                    d9:b2:d4:40:6b:19:f4:d9:2f:92:7c:58:a0:2d:51:
                    57:f5:28:f4:14:22:11:54:46:15:c2:01:f1:2a:7c:
                    69:93:e9:bc:be:c4:5d:cd:12:b1:20:73:23:fa:88:
                    83:46:70:4e:7c:73:1f:c2:ce:2a:74:2f:74:09:1a:
                    88:86:a2:4c:b9:95:6f:2b:be:05:67:e7:f1:45:fd:
                    5e:57:42:87:09:3d:8a:2e:90:56:be:28:27:1c:16:
                    39:fe:ea:65:ae:96:02:82:9f:37:28:5f:40:b7:ac:
                    4e:ae:eb:6b:f3:56:9b:d2:bc:6e:cf:04:f1:b4:1f:
                    3f:e4:ef:3a:a7:90:eb:3e:72:22:70:8f:a8:ac:c3:
                    d5:ff:ba:76:1c:f4:f9:d4:ee:27:87:e8:ea:2e:82:
                    e0:d6:a5:0f:79:90:9d:7c:79:b8:5a:76:d8:ba:66:
                    40:ae:92:43:a6:12:ac:54:97:d7:3b:72:4c:97:4b:
                    a2:76:d5:3f:35:8f:01:68:a3:e0:de:d7:6b:b7:d4:
                    bf:63:ac:8d:e2:f8:42:33:09:bd:9f:1b:ec:7b:f6:
                    74:b6:a9:db:4f:4b:80:c5:ad:8f:d7:a4:73:88:ed:
                    6c:32:c3:9b:db:73:46:8c:29:e6:49:54:84:82:64:
                    8c:b5:0a:e5:a3:ae:52:c7:c7:1b:75:a6:55:47:fd:
                    57:7b:8c:5e:5c:2e:34:37:60:57:30:a4:d4:72:d1:
                    7f:05:c3:46:25:8a:13:f2:a9:c8:7b:16:61:da:42:
                    6d:90:92:f3:11:05:1e:07:fd:4d:0f:22:27:21:e1:
                    1f:6a:e5:e9:3c:30:9f:ae:0c:36:63:d3:a2:26:29:
                    06:ae:da:a7:c4:7f:48:24:75:2c:7d:eb:bf:1b:57:
                    aa:27:07:77:99:3e:8c:6c:16:ce:3e:4f:ed:28:a4:
                    89:5e:d0:83:af:96:7c:37:83:30:f8:3a:9e:f2:02:
                    7e:f2:69
                Exponent: 65537 (0x10001)
        X509v3 extensions:
            X509v3 Subject Key Identifier: 
                D1:B1:96:37:1E:39:CF:D9:7A:F2:34:44:E4:F1:5B:7C:B1:7C:B0:C0
            X509v3 Authority Key Identifier: 
                keyid:E2:DE:71:95:0A:CB:DF:09:EB:DC:03:02:1F:E3:B8:9A:6C:87:54:88

            X509v3 Basic Constraints: critical
                CA:TRUE, pathlen:0
            X509v3 Key Usage: critical
                Digital Signature, Certificate Sign, CRL Sign
            ROLE: 
                0...DEVICE..CA
    Signature Algorithm: sha384WithRSAEncryption
        2a:d0:68:cc:a1:32:c1:40:91:39:8f:b4:1f:6d:6d:c9:d3:bc:
        7f:dd:d9:19:d6:8a:fe:d1:6b:53:7d:9e:76:04:82:ee:e1:67:
        35:c9:c1:af:76:b4:57:b7:85:cf:a8:6d:d1:da:f2:b4:20:b9:
        7a:6d:94:86:54:1a:e8:ae:df:12:b5:9f:d2:0b:5d:4b:34:e1:
        df:f4:e0:59:e9:db:b3:12:f1:53:10:0c:cc:c0:e2:26:98:13:
        33:6c:11:dc:94:3e:5e:02:82:1b:18:6e:53:a5:27:98:70:7b:
        26:b1:36:63:c1:bd:85:75:3f:6f:f9:76:c8:d6:b3:40:d4:35:
        04:6c:c4:c3:54:12:c0:27:19:9b:34:f1:ee:0e:60:e3:6d:04:
        7c:ea:9f:bf:de:29:68:1c:b6:44:a2:df:f1:2c:d3:3d:3a:54:
        d8:3f:bd:44:87:96:a9:fb:19:4a:01:69:9d:89:c6:a7:17:e2:
        69:76:9c:68:18:04:29:df:43:30:84:72:03:38:86:2e:f3:34:
        37:b4:5b:a6:36:62:76:48:68:35:55:21:d5:76:b5:08:20:d5:
        08:31:58:bf:fc:52:54:fb:87:e4:4f:6a:ac:4d:b7:5b:df:ac:
        55:79:95:0b:94:c9:a9:c3:69:01:73:4b:2f:37:36:ad:96:be:
        7a:e3:15:a6:e0:98:cb:73:74:3a:c3:5a:57:e6:22:44:f0:3e:
        18:a2:9d:e4:b8:85:be:19:df:26:84:14:8b:80:7b:cd:66:05:
        4d:3f:e2:f8:04:e2:d6:29:56:00:fe:44:29:bc:b6:84:6e:c1:
        d3:b7:c7:8b:8f:81:10:fe:f5:78:85:e7:ee:43:87:16:22:9b:
        8f:1d:e0:30:8d:88:e0:e2:77:8d:91:e3:89:8d:6a:4c:10:5f:
        48:38:b0:3a:c2:7f:5e:37:2a:19:0f:b4:5f:1d:ff:e5:0c:5f:
        af:e7:bb:e5:d2:56:f9:79:bb:55:af:d6:3b:5a:47:a0:cc:db:
        5b:16:d0:5e:5f:76:30:b5:55:1d:a3:0d:13:cd:65:ef:90:d3:
        f5:08:6e:3f:99:b2:4a:f4:3b:1d:72:a6:12:45:9b:bc:ae:b7:
        95:0b:e3:7c:1d:0d:d6:8a:7e:3f:b7:ba:33:c4:18:b3:fa:41:
        6e:7b:dc:4b:6c:1a:8e:ff:ad:bf:5d:87:19:a8:1d:4a:a2:93:
        69:d8:fa:b7:32:c8:97:57:d2:57:f7:94:0a:a9:6e:98:d9:f2:
        19:58:a5:db:72:b6:84:7b:1a:bf:c4:4f:f8:bd:31:52:7a:37:
        56:82:72:d2:3d:86:55:31:f1:4f:a6:a2:f4:b2:c8:05:3d:b3:
        5f:a4:88:5e:cc:4d:4d:63
-----BEGIN CERTIFICATE-----
MIIGcjCCBFqgAwIBAgIJAOyS8vblrPFrMA0GCSqGSIb3DQEBDAUAMIGsMQswCQYD
VQQGEwJVUzEdMBsGA1UECAwURGlzdHJpY3Qgb2YgQ29sdW1iaWExEzARBgNVBAcM
Cldhc2hpbmd0b24xIjAgBgNVBAoMGVdpcmVsZXNzIElubm92YXRpb24gRm9ydW0x
IzAhBgNVBAsMGnd3dy53aXJlbGVzc2lubm92YXRpb24ub3JnMSAwHgYDVQQDDBdX
SW5uRm9ydW0gUlNBIFJvb3QgQ0EtMTAeFw0xNjA2MzAxNjM4MDdaFw0zMTA2Mjcx
NjM4MDdaMIG7MQswCQYDVQQGEwJVUzEdMBsGA1UECAwURGlzdHJpY3Qgb2YgQ29s
dW1iaWExEzARBgNVBAcMCldhc2hpbmd0b24xIjAgBgNVBAoMGVdpcmVsZXNzIElu
bm92YXRpb24gRm9ydW0xIzAhBgNVBAsMGnd3dy53aXJlbGVzc2lubm92YXRpb24u
b3JnMS8wLQYDVQQDDCZXSW5uRm9ydW0gUlNBIERldmljZSBNYW51ZmFjdHVyZXIg
Q0EtMTCCAiIwDQYJKoZIhvcNAQEBBQADggIPADCCAgoCggIBALXPLdAlztA2AAT5
xFnWl0t2etZd5ikfS9npmbxdtuNdF2333LCitrX4uATsy//e4toZZxsboQEiJh/V
4Z/N1auVu7gDOsiS/NPkmKQUgm6UONpYQQr8W76/5WywO5RFCMwNFtyrPlS6KVnK
l2WYkkxMlXnX3QzyXAMMXuCFmZY7G7piF1+S5mU759KyI4MFpMBdkgyw2bLUQGsZ
9NkvknxYoC1RV/Uo9BQiEVRGFcIB8Sp8aZPpvL7EXc0SsSBzI/qIg0ZwTnxzH8LO
KnQvdAkaiIaiTLmVbyu+BWfn8UX9XldChwk9ii6QVr4oJxwWOf7qZa6WAoKfNyhf
QLesTq7ra/NWm9K8bs8E8bQfP+TvOqeQ6z5yInCPqKzD1f+6dhz0+dTuJ4fo6i6C
4NalD3mQnXx5uFp22LpmQK6SQ6YSrFSX1ztyTJdLonbVPzWPAWij4N7Xa7fUv2Os
jeL4QjMJvZ8b7Hv2dLap209LgMWtj9ekc4jtbDLDm9tzRowp5klUhIJkjLUK5aOu
UsfHG3WmVUf9V3uMXlwuNDdgVzCk1HLRfwXDRiWKE/KpyHsWYdpCbZCS8xEFHgf9
TQ8iJyHhH2rl6Twwn64MNmPToiYpBq7ap8R/SCR1LH3rvxtXqicHd5k+jGwWzj5P
7SikiV7Qg6+WfDeDMPg6nvICfvJpAgMBAAGjgYUwgYIwHQYDVR0OBBYEFNGxljce
Oc/ZevI0ROTxW3yxfLDAMB8GA1UdIwQYMBaAFOLecZUKy98J69wDAh/juJpsh1SI
MBIGA1UdEwEB/wQIMAYBAf8CAQAwDgYDVR0PAQH/BAQDAgGGMBwGCisGAQQBguwR
AQEEDjAMDAZERVZJQ0UMAkNBMA0GCSqGSIb3DQEBDAUAA4ICAQAq0GjMoTLBQJE5
j7QfbW3J07x/3dkZ1or+0WtTfZ52BILu4Wc1ycGvdrRXt4XPqG3R2vK0ILl6bZSG
VBrort8StZ/SC11LNOHf9OBZ6duzEvFTEAzMwOImmBMzbBHclD5eAoIbGG5TpSeY
cHsmsTZjwb2FdT9v+XbI1rNA1DUEbMTDVBLAJxmbNPHuDmDjbQR86p+/3iloHLZE
ot/xLNM9OlTYP71Eh5ap+xlKAWmdicanF+JpdpxoGAQp30MwhHIDOIYu8zQ3tFum
NmJ2SGg1VSHVdrUIINUIMVi//FJU+4fkT2qsTbdb36xVeZULlMmpw2kBc0svNzat
lr564xWm4JjLc3Q6w1pX5iJE8D4Yop3kuIW+Gd8mhBSLgHvNZgVNP+L4BOLWKVYA
/kQpvLaEbsHTt8eLj4EQ/vV4hefuQ4cWIpuPHeAwjYjg4neNkeOJjWpMEF9IOLA6
wn9eNyoZD7RfHf/lDF+v57vl0lb5ebtVr9Y7WkegzNtbFtBeX3YwtVUdow0TzWXv
kNP1CG4/mbJK9DsdcqYSRZu8rreVC+N8HQ3Win4/t7ozxBiz+kFue9xLbBqO/62/
XYcZqB1KopNp2Pq3MsiXV9JX95QKqW6Y2fIZWKXbcraEexq/xE/4vTFSejdWgnLS
PYZVMfFPpqL0ssgFPbNfpIhezE1NYw==
-----END CERTIFICATE-----
