Certificate:
    Data:
        Version: 3 (0x2)
        Serial Number: 18252460957402756206 (0xfd4dc488faad746e)
    Signature Algorithm: sha384WithRSAEncryption
        Issuer: C=US, ST=District of Columbia, L=Washington, O=Wireless Innovation Forum, OU=www.wirelessinnovation.org, CN=WInnForum RSA Root CA-1
        Validity
            Not Before: Aug  2 19:12:50 2016 GMT
            Not After : Jul 30 19:12:50 2031 GMT
        Subject: C=US, ST=District of Columbia, L=Washington, O=Wireless Innovation Forum, OU=www.wirelessinnovation.org, CN=WInnForum RSA Operator CA-1
        Subject Public Key Info:
            Public Key Algorithm: rsaEncryption
                Public-Key: (4096 bit)
                Modulus:
                    00:c6:05:7b:52:ca:0e:b5:79:3d:25:fa:b4:fc:ff:
                    a9:f1:7f:f0:c6:7d:34:4b:3d:02:83:cd:3d:2a:c2:
                    b6:a9:66:d4:4c:4a:39:4f:d8:37:d4:0b:bb:4a:86:
                    c1:77:19:e8:16:29:cb:ec:7b:45:a6:62:65:3b:4b:
                    1a:98:c4:78:da:af:9b:cc:5d:8b:ca:25:bb:73:36:
                    31:6c:fa:01:a8:31:44:3e:d2:cb:04:13:5f:2a:a3:
                    60:7a:9b:b0:88:7b:b7:b5:ae:ee:5d:c0:c3:8a:e8:
                    98:71:c1:49:53:8a:7e:16:e7:73:ad:1f:f3:f3:e9:
                    38:a2:01:5d:0f:6c:d0:81:c0:2b:7b:32:72:bc:9c:
                    bb:aa:6a:15:8f:dd:d0:e4:15:7d:f8:30:21:6a:4e:
                    89:d8:1c:76:49:49:33:8e:dc:4e:6c:fe:c4:b1:cf:
                    1f:d0:f0:2f:3f:17:d8:67:1a:ab:c2:b2:5d:3b:71:
                    71:b5:4d:1a:5f:a7:5d:14:f0:3c:d4:84:74:c4:aa:
                    2a:ac:e1:1f:b5:2f:11:d2:25:a3:28:a3:af:23:1f:
                    f8:b2:cb:0b:04:3b:73:dc:a5:0f:7d:75:5a:54:e7:
                    0b:a7:a8:dd:39:ed:e0:7d:b3:d3:3c:e4:41:d3:eb:
                    2a:ee:5f:1d:ad:75:a4:3b:a0:de:21:9a:0a:75:a3:
                    5c:18:45:00:ce:ee:47:18:ba:18:df:93:1a:3f:0c:
                    81:d2:fd:05:d3:c4:6b:2e:e6:b5:39:ae:47:89:1b:
                    1c:40:3e:07:57:6a:0d:ee:5c:cd:c1:10:3d:b9:a5:
                    30:84:e1:c6:fb:3a:ed:17:bc:52:58:ce:f7:0e:5d:
                    6b:33:5c:0c:b3:1a:02:c9:1f:54:86:ce:3e:6d:40:
                    bb:1d:1a:df:33:76:4c:41:a2:c6:8d:87:60:05:4e:
                    bb:a6:0a:23:73:c4:b4:e9:f3:f6:d1:62:83:79:4e:
                    df:37:41:2b:b2:e6:54:7f:b9:e3:42:9c:ed:d5:42:
                    f2:77:88:97:0c:ec:2a:25:65:88:e5:e4:4b:30:d2:
                    67:9b:d5:94:d3:f7:e1:51:39:d7:67:d3:62:78:12:
                    2f:fd:e5:50:d9:2b:a7:dd:fb:6d:ad:7e:73:a1:a1:
                    ee:16:99:21:02:c1:fd:93:ba:73:7b:9d:0e:b4:a5:
                    0e:49:e5:19:81:32:9c:1b:62:c3:10:c9:37:83:50:
                    4e:ca:3e:d5:f5:61:37:4d:fc:76:52:ae:20:4a:5f:
                    25:62:95:34:53:ff:e4:b2:ea:61:67:b7:aa:97:71:
                    6c:b1:14:76:20:2e:97:c0:ad:c5:1b:a8:62:3c:dc:
                    f3:0b:bb:b1:7c:80:1b:76:c9:db:b3:cb:96:56:54:
                    9d:16:5d
                Exponent: 65537 (0x10001)
        X509v3 extensions:
            X509v3 Subject Key Identifier: 
                4D:F2:67:4F:A4:FF:95:73:02:C3:DE:B8:73:DE:6E:F6:48:D9:C1:21
            X509v3 Authority Key Identifier: 
                keyid:02:DD:01:BF:A7:5F:CB:3E:D4:EC:63:C5:65:F6:BC:78:12:EB:23:ED

            X509v3 Basic Constraints: critical
                CA:TRUE, pathlen:0
            X509v3 Key Usage: critical
                Digital Signature, Certificate Sign, CRL Sign
            ROLE: 
                0...OPERATOR..CA
    Signature Algorithm: sha384WithRSAEncryption
         be:f2:40:c6:42:e8:04:a5:1f:e8:71:63:28:5d:eb:55:af:25:
         41:77:98:17:e6:7c:4a:8c:2b:fd:06:97:2f:64:9a:76:b4:29:
         bd:72:94:bd:4f:0d:23:62:a0:76:d5:2c:96:56:fc:f9:d6:8e:
         a3:d8:04:9e:e5:b3:de:c6:84:5a:2a:e4:7e:a5:1c:3e:25:f6:
         0d:8e:c9:bb:2a:d8:7f:6a:6d:17:af:39:a0:18:28:eb:1b:97:
         35:b1:87:5a:9e:19:6d:b5:d4:94:9d:8b:a1:7a:04:a0:9e:2e:
         a3:16:82:81:26:e7:9a:7f:b8:69:ca:52:1b:89:2e:bc:bb:6d:
         ff:f4:17:7f:56:8e:5a:6e:cc:e8:69:81:2c:4f:ac:ba:ed:9f:
         27:90:40:81:b3:37:d3:4d:f0:2f:6c:f3:8b:3f:f2:20:8a:00:
         78:e8:9e:a2:ec:ae:51:12:21:b7:e6:b7:14:10:9c:cd:6c:7b:
         3b:ec:04:e0:c1:2c:1d:53:3d:61:58:9a:eb:9f:1a:ce:9e:34:
         5c:2a:fb:4d:6e:7a:0f:2e:3e:9e:74:99:b0:d2:67:bb:35:09:
         2c:e8:1d:eb:48:7b:b5:ad:71:f2:e1:5c:01:eb:e1:f4:79:d7:
         96:d0:ad:bd:4d:73:c1:bd:e2:c2:22:bc:48:62:b8:d2:65:38:
         3f:c5:53:73:f5:b8:5d:c4:05:8d:3e:e2:f7:c4:b4:23:f6:62:
         30:c6:35:5d:4f:9b:e6:2a:da:20:99:5b:bc:7c:27:3d:6d:9a:
         64:d7:f6:29:ac:b8:be:b8:09:31:21:97:da:61:92:2a:90:fb:
         88:e2:81:61:de:0b:83:ab:09:4a:f6:f3:03:ac:7f:ed:1f:a5:
         90:79:17:d4:b6:ef:8a:2a:6c:14:a4:94:38:53:96:72:57:07:
         7e:29:71:55:9c:d6:e1:7f:65:ba:e0:ee:3b:38:72:73:c1:98:
         a7:91:ba:a1:8c:cc:03:02:cd:75:dd:9d:13:d7:34:e8:b3:55:
         8f:e1:d5:85:42:01:d1:a9:96:b5:93:c5:85:cd:c0:0d:20:8c:
         5b:4a:9d:29:66:2e:af:ee:2a:ba:d6:66:c1:33:d9:21:25:a2:
         07:f4:3c:e8:5a:b2:1d:0e:ab:75:ef:63:e8:05:01:a6:d3:df:
         c3:69:37:5e:f4:76:69:1f:aa:d2:31:a5:c3:b9:1f:40:c8:dc:
         23:44:99:3d:ae:51:22:e3:6c:bf:ae:02:0c:12:6b:50:8c:55:
         39:79:e5:1b:c1:fc:92:e8:18:42:57:e3:a8:06:d5:6a:9a:0a:
         c0:61:c4:6e:81:e0:fe:b1:ec:8c:a2:d1:cf:49:07:3c:84:55:
         4f:6a:b5:22:43:29:8a:c4
-----BEGIN CERTIFICATE-----
MIIGaTCCBFGgAwIBAgIJAP1NxIj6rXRuMA0GCSqGSIb3DQEBDAUAMIGsMQswCQYD
VQQGEwJVUzEdMBsGA1UECAwURGlzdHJpY3Qgb2YgQ29sdW1iaWExEzARBgNVBAcM
Cldhc2hpbmd0b24xIjAgBgNVBAoMGVdpcmVsZXNzIElubm92YXRpb24gRm9ydW0x
IzAhBgNVBAsMGnd3dy53aXJlbGVzc2lubm92YXRpb24ub3JnMSAwHgYDVQQDDBdX
SW5uRm9ydW0gUlNBIFJvb3QgQ0EtMTAeFw0xNjA4MDIxOTEyNTBaFw0zMTA3MzAx
OTEyNTBaMIGwMQswCQYDVQQGEwJVUzEdMBsGA1UECAwURGlzdHJpY3Qgb2YgQ29s
dW1iaWExEzARBgNVBAcMCldhc2hpbmd0b24xIjAgBgNVBAoMGVdpcmVsZXNzIElu
bm92YXRpb24gRm9ydW0xIzAhBgNVBAsMGnd3dy53aXJlbGVzc2lubm92YXRpb24u
b3JnMSQwIgYDVQQDDBtXSW5uRm9ydW0gUlNBIE9wZXJhdG9yIENBLTEwggIiMA0G
CSqGSIb3DQEBAQUAA4ICDwAwggIKAoICAQDGBXtSyg61eT0l+rT8/6nxf/DGfTRL
PQKDzT0qwrapZtRMSjlP2DfUC7tKhsF3GegWKcvse0WmYmU7SxqYxHjar5vMXYvK
JbtzNjFs+gGoMUQ+0ssEE18qo2B6m7CIe7e1ru5dwMOK6JhxwUlTin4W53OtH/Pz
6TiiAV0PbNCBwCt7MnK8nLuqahWP3dDkFX34MCFqTonYHHZJSTOO3E5s/sSxzx/Q
8C8/F9hnGqvCsl07cXG1TRpfp10U8DzUhHTEqiqs4R+1LxHSJaMoo68jH/iyywsE
O3PcpQ99dVpU5wunqN057eB9s9M85EHT6yruXx2tdaQ7oN4hmgp1o1wYRQDO7kcY
uhjfkxo/DIHS/QXTxGsu5rU5rkeJGxxAPgdXag3uXM3BED25pTCE4cb7Ou0XvFJY
zvcOXWszXAyzGgLJH1SGzj5tQLsdGt8zdkxBosaNh2AFTrumCiNzxLTp8/bRYoN5
Tt83QSuy5lR/ueNCnO3VQvJ3iJcM7ColZYjl5Esw0meb1ZTT9+FROddn02J4Ei/9
5VDZK6fd+22tfnOhoe4WmSECwf2TunN7nQ60pQ5J5RmBMpwbYsMQyTeDUE7KPtX1
YTdN/HZSriBKXyVilTRT/+Sy6mFnt6qXcWyxFHYgLpfArcUbqGI83PMLu7F8gBt2
yduzy5ZWVJ0WXQIDAQABo4GHMIGEMB0GA1UdDgQWBBRN8mdPpP+VcwLD3rhz3m72
SNnBITAfBgNVHSMEGDAWgBQC3QG/p1/LPtTsY8Vl9rx4Eusj7TASBgNVHRMBAf8E
CDAGAQH/AgEAMA4GA1UdDwEB/wQEAwIBhjAeBgorBgEEAYLsEQEBBBAwDgwIT1BF
UkFUT1IMAkNBMA0GCSqGSIb3DQEBDAUAA4ICAQC+8kDGQugEpR/ocWMoXetVryVB
d5gX5nxKjCv9BpcvZJp2tCm9cpS9Tw0jYqB21SyWVvz51o6j2ASe5bPexoRaKuR+
pRw+JfYNjsm7Kth/am0XrzmgGCjrG5c1sYdanhlttdSUnYuhegSgni6jFoKBJuea
f7hpylIbiS68u23/9Bd/Vo5abszoaYEsT6y67Z8nkECBszfTTfAvbPOLP/IgigB4
6J6i7K5REiG35rcUEJzNbHs77ATgwSwdUz1hWJrrnxrOnjRcKvtNbnoPLj6edJmw
0me7NQks6B3rSHu1rXHy4VwB6+H0edeW0K29TXPBveLCIrxIYrjSZTg/xVNz9bhd
xAWNPuL3xLQj9mIwxjVdT5vmKtogmVu8fCc9bZpk1/YprLi+uAkxIZfaYZIqkPuI
4oFh3guDqwlK9vMDrH/tH6WQeRfUtu+KKmwUpJQ4U5ZyVwd+KXFVnNbhf2W64O47
OHJzwZinkbqhjMwDAs113Z0T1zTos1WP4dWFQgHRqZa1k8WFzcANIIxbSp0pZi6v
7iq61mbBM9khJaIH9DzoWrIdDqt172PoBQGm09/DaTde9HZpH6rSMaXDuR9AyNwj
RJk9rlEi42y/rgIMEmtQjFU5eeUbwfyS6BhCV+OoBtVqmgrAYcRugeD+seyMotHP
SQc8hFVParUiQymKxA==
-----END CERTIFICATE-----
