Certificate:
    Data:
        Version: 3 (0x2)
        Serial Number: 18252460957402756204 (0xfd4dc488faad746c)
    Signature Algorithm: sha384WithRSAEncryption
        Issuer: C=US, ST=District of Columbia, L=Washington, O=Wireless Innovation Forum, OU=www.wirelessinnovation.org, CN=WInnForum RSA Root CA-1
        Validity
            Not Before: Aug  2 19:12:49 2016 GMT
            Not After : Jul 30 19:12:49 2031 GMT
        Subject: C=US, ST=District of Columbia, L=Washington, O=Wireless Innovation Forum, OU=www.wirelessinnovation.org, CN=WInnForum RSA SAS CA-1
        Subject Public Key Info:
            Public Key Algorithm: rsaEncryption
                Public-Key: (4096 bit)
                Modulus:
                    00:dd:46:c7:2d:e4:95:c9:49:5b:df:e7:0d:53:cb:
                    15:10:10:75:5c:d3:d3:20:c5:4e:e9:d9:8b:f1:7d:
                    c2:f3:e5:61:6a:30:4d:21:46:05:38:f5:bd:f5:8f:
                    eb:3d:57:d2:8c:27:dd:3f:f0:a5:31:d6:c9:f1:44:
                    b5:d5:51:16:17:3b:ee:84:64:51:99:22:11:6b:c8:
                    a2:d9:a1:8a:ea:e2:50:ce:58:01:1f:8e:73:bc:6b:
                    5a:a7:84:47:b0:ab:03:7e:47:02:9b:64:95:64:75:
                    4e:16:22:09:c2:99:cc:4c:fe:34:3b:7a:04:5f:ea:
                    9c:f2:37:cf:94:1b:c2:db:0b:16:28:89:8e:f8:ea:
                    48:6e:74:36:da:fe:09:96:43:99:2c:33:cb:8a:b3:
                    fa:83:a0:8b:62:ba:78:95:42:ce:21:68:fb:b9:d6:
                    37:b2:75:c8:8f:cb:b4:5a:2b:e4:73:cf:4c:25:31:
                    ac:3a:bd:5a:b4:b8:34:f7:6c:55:16:8d:00:e5:b8:
                    de:d4:a1:e7:89:5c:10:53:0d:f3:60:ce:55:93:34:
                    09:97:7c:05:4c:7c:a0:00:9a:15:b2:ac:e7:fc:e8:
                    bd:26:c2:7e:0c:6e:a9:50:4e:bc:fd:ce:3e:ac:18:
                    d8:1f:96:64:a0:f0:39:58:a8:0b:1c:30:dc:38:88:
                    10:91:6e:56:67:56:1e:34:12:e8:d0:53:42:3a:e9:
                    35:e2:10:6f:66:1b:4b:82:eb:d8:47:d8:08:11:7a:
                    d9:42:7b:de:00:92:38:f8:1e:8c:9c:f5:4c:f3:08:
                    98:79:b8:2f:5e:ff:ee:ba:6e:00:5e:27:18:e0:c8:
                    55:a0:6b:4e:11:b2:3f:00:44:a7:47:1d:24:9d:ba:
                    90:30:cf:3f:96:6b:5d:b0:fe:12:7a:9f:87:ec:32:
                    ab:c7:d5:b6:32:35:a0:81:10:b2:73:be:70:2f:4b:
                    e6:45:fb:9d:50:a2:bc:07:e7:dd:1e:9c:a1:09:58:
                    b9:15:a4:69:a1:ad:ee:83:6b:33:5e:c8:30:ad:c8:
                    84:5c:34:bb:b0:f5:a0:7d:64:06:a6:83:4d:fe:94:
                    90:ca:b6:e9:2f:21:64:6f:58:58:5c:a9:4d:de:17:
                    17:b4:61:16:a2:7b:e9:2a:f0:48:8f:3d:ff:94:32:
                    a5:64:9e:e1:f3:44:b1:ce:84:18:b9:16:a3:cd:33:
                    22:99:5f:9d:81:ed:12:cb:aa:57:99:22:ce:cb:ee:
                    93:be:dd:f6:7c:d9:ed:7d:16:08:b3:d2:8d:73:7a:
                    be:9a:20:c5:69:f2:a0:6d:3f:a7:57:eb:bd:94:03:
                    35:70:cf:16:1d:17:48:cb:47:e6:80:d7:b3:31:4c:
                    e3:3a:c5
                Exponent: 65537 (0x10001)
        X509v3 extensions:
            X509v3 Subject Key Identifier: 
                0B:7C:6C:99:A8:82:2A:85:C1:1A:09:DF:6A:9D:95:FC:7B:56:B7:9A
            X509v3 Authority Key Identifier: 
                keyid:02:DD:01:BF:A7:5F:CB:3E:D4:EC:63:C5:65:F6:BC:78:12:EB:23:ED

            X509v3 Basic Constraints: critical
                CA:TRUE, pathlen:0
            X509v3 Key Usage: critical
                Digital Signature, Certificate Sign, CRL Sign
            ROLE: 
                0...SAS..CA
    Signature Algorithm: sha384WithRSAEncryption
         07:de:3a:28:40:08:3f:13:28:41:ad:3a:b4:c3:b7:d8:cf:03:
         1f:9b:6e:31:45:58:b6:25:2d:70:c8:57:a5:40:2b:22:69:94:
         bb:b8:c5:80:c9:79:0a:31:7a:2e:b2:be:2b:18:4f:38:a5:e2:
         0d:01:41:96:a0:e4:ad:ef:91:f8:7a:c9:65:35:2c:7c:26:4b:
         ee:0b:c1:73:ae:fc:25:26:e2:3c:2a:06:f6:e7:be:1d:23:56:
         51:ce:4a:45:f4:0e:ec:b9:85:d0:24:6d:17:1e:cf:84:8b:de:
         b0:1e:5f:55:d1:c9:49:6f:f7:5f:99:89:97:41:94:1d:dc:8e:
         a7:af:93:c6:de:de:7a:9c:23:05:c2:94:04:f6:7a:22:b7:6e:
         b2:a0:89:02:b6:79:cd:8c:3c:05:b8:a9:0e:90:4c:ec:78:38:
         b7:ee:82:79:fb:34:60:4f:53:b1:a2:61:a3:54:56:e5:c5:29:
         eb:d5:53:24:fa:a7:df:60:2c:7a:f7:3b:29:5c:6d:9c:76:50:
         5f:47:41:2a:03:25:be:5c:82:63:48:43:a0:95:fc:41:05:98:
         b7:e5:7c:30:7f:5f:3c:7f:de:9b:2d:80:3d:fd:62:6e:40:33:
         30:0e:e5:6c:c3:7d:e0:0e:e2:88:0f:87:a0:44:ac:14:00:7b:
         d9:1f:24:dd:e1:06:aa:1e:aa:01:34:b4:e8:a6:99:fa:dc:5b:
         34:cd:1c:9a:4b:82:72:1f:94:be:b8:96:c0:27:9c:96:18:69:
         78:a3:77:01:b5:b9:0c:1a:5f:87:98:c4:6f:1a:16:dc:ba:19:
         11:1d:2d:ae:87:87:db:68:53:19:54:15:44:35:06:e4:dd:00:
         e3:f7:0a:b3:1e:70:18:61:f0:57:6c:30:a2:1b:39:3e:2c:c0:
         e9:ee:fc:d0:00:25:bf:9e:28:32:b8:b9:fb:4a:75:e1:ed:df:
         5d:2e:a3:a3:3a:48:d9:12:07:65:20:be:09:54:d7:93:0e:8f:
         78:9c:15:3b:89:d4:cc:68:62:84:4e:e8:fb:85:18:12:bb:57:
         f6:86:08:45:a3:e1:20:3b:ae:16:4b:4a:3b:32:50:53:5e:5d:
         4f:cd:2a:fb:99:ed:03:4f:76:2e:0d:4d:d0:64:e8:8e:ff:43:
         c1:f3:41:04:4c:83:72:c4:d9:b1:5b:d6:c2:ea:47:05:28:40:
         8b:c9:5f:cf:33:88:5c:78:89:1d:6e:9d:6b:57:8b:7f:e5:94:
         a2:e5:ea:2c:7f:40:dc:b3:f0:c0:cf:92:38:17:e5:95:04:60:
         18:8e:90:60:bf:e8:9b:ae:c6:2b:4a:e3:72:c9:8c:98:58:f4:
         82:b6:47:2c:03:36:86:e9
-----BEGIN CERTIFICATE-----
MIIGXjCCBEagAwIBAgIJAP1NxIj6rXRsMA0GCSqGSIb3DQEBDAUAMIGsMQswCQYD
VQQGEwJVUzEdMBsGA1UECAwURGlzdHJpY3Qgb2YgQ29sdW1iaWExEzARBgNVBAcM
Cldhc2hpbmd0b24xIjAgBgNVBAoMGVdpcmVsZXNzIElubm92YXRpb24gRm9ydW0x
IzAhBgNVBAsMGnd3dy53aXJlbGVzc2lubm92YXRpb24ub3JnMSAwHgYDVQQDDBdX
SW5uRm9ydW0gUlNBIFJvb3QgQ0EtMTAeFw0xNjA4MDIxOTEyNDlaFw0zMTA3MzAx
OTEyNDlaMIGrMQswCQYDVQQGEwJVUzEdMBsGA1UECAwURGlzdHJpY3Qgb2YgQ29s
dW1iaWExEzARBgNVBAcMCldhc2hpbmd0b24xIjAgBgNVBAoMGVdpcmVsZXNzIElu
bm92YXRpb24gRm9ydW0xIzAhBgNVBAsMGnd3dy53aXJlbGVzc2lubm92YXRpb24u
b3JnMR8wHQYDVQQDDBZXSW5uRm9ydW0gUlNBIFNBUyBDQS0xMIICIjANBgkqhkiG
9w0BAQEFAAOCAg8AMIICCgKCAgEA3UbHLeSVyUlb3+cNU8sVEBB1XNPTIMVO6dmL
8X3C8+VhajBNIUYFOPW99Y/rPVfSjCfdP/ClMdbJ8US11VEWFzvuhGRRmSIRa8ii
2aGK6uJQzlgBH45zvGtap4RHsKsDfkcCm2SVZHVOFiIJwpnMTP40O3oEX+qc8jfP
lBvC2wsWKImO+OpIbnQ22v4JlkOZLDPLirP6g6CLYrp4lULOIWj7udY3snXIj8u0
Wivkc89MJTGsOr1atLg092xVFo0A5bje1KHniVwQUw3zYM5VkzQJl3wFTHygAJoV
sqzn/Oi9JsJ+DG6pUE68/c4+rBjYH5ZkoPA5WKgLHDDcOIgQkW5WZ1YeNBLo0FNC
Ouk14hBvZhtLguvYR9gIEXrZQnveAJI4+B6MnPVM8wiYebgvXv/uum4AXicY4MhV
oGtOEbI/AESnRx0knbqQMM8/lmtdsP4Sep+H7DKrx9W2MjWggRCyc75wL0vmRfud
UKK8B+fdHpyhCVi5FaRpoa3ug2szXsgwrciEXDS7sPWgfWQGpoNN/pSQyrbpLyFk
b1hYXKlN3hcXtGEWonvpKvBIjz3/lDKlZJ7h80SxzoQYuRajzTMimV+dge0Sy6pX
mSLOy+6Tvt32fNntfRYIs9KNc3q+miDFafKgbT+nV+u9lAM1cM8WHRdIy0fmgNez
MUzjOsUCAwEAAaOBgTB/MB0GA1UdDgQWBBQLfGyZqIIqhcEaCd9qnZX8e1a3mjAf
BgNVHSMEGDAWgBQC3QG/p1/LPtTsY8Vl9rx4Eusj7TASBgNVHRMBAf8ECDAGAQH/
AgEAMA4GA1UdDwEB/wQEAwIBhjAZBgorBgEEAYLsEQEBBAswCQwDU0FTDAJDQTAN
BgkqhkiG9w0BAQwFAAOCAgEAB946KEAIPxMoQa06tMO32M8DH5tuMUVYtiUtcMhX
pUArImmUu7jFgMl5CjF6LrK+KxhPOKXiDQFBlqDkre+R+HrJZTUsfCZL7gvBc678
JSbiPCoG9ue+HSNWUc5KRfQO7LmF0CRtFx7PhIvesB5fVdHJSW/3X5mJl0GUHdyO
p6+Txt7eepwjBcKUBPZ6IrdusqCJArZ5zYw8BbipDpBM7Hg4t+6Cefs0YE9TsaJh
o1RW5cUp69VTJPqn32Asevc7KVxtnHZQX0dBKgMlvlyCY0hDoJX8QQWYt+V8MH9f
PH/emy2APf1ibkAzMA7lbMN94A7iiA+HoESsFAB72R8k3eEGqh6qATS06KaZ+txb
NM0cmkuCch+UvriWwCeclhhpeKN3AbW5DBpfh5jEbxoW3LoZER0troeH22hTGVQV
RDUG5N0A4/cKsx5wGGHwV2wwohs5PizA6e780AAlv54oMri5+0p14e3fXS6jozpI
2RIHZSC+CVTXkw6PeJwVO4nUzGhihE7o+4UYErtX9oYIRaPhIDuuFktKOzJQU15d
T80q+5ntA092Lg1N0GTojv9DwfNBBEyDcsTZsVvWwupHBShAi8lfzzOIXHiJHW6d
a1eLf+WUouXqLH9A3LPwwM+SOBfllQRgGI6QYL/om67GK0rjcsmMmFj0grZHLAM2
huk=
-----END CERTIFICATE-----
