Certificate:
    Data:
        Version: 3 (0x2)
        Serial Number:
            ec:92:f2:f6:e5:ac:f1:64
        Signature Algorithm: sha384WithRSAEncryption
        Issuer: C=US, ST=District of Columbia, L=Washington, O=Wireless Innovation Forum, OU=www.wirelessinnovation.org, CN=WInnForum RSA SAS CA-1
        Validity
            Not Before: Jun 30 16:37:53 2016 GMT
            Not After : Sep 28 16:37:53 2019 GMT
        Subject: C=US, ST=District of Columbia, L=Washington, O=Wireless Innovation Forum, OU=www.wirelessinnovation.org, CN=SAS End-Entity Example
        Subject Public Key Info:
            Public Key Algorithm: rsaEncryption
            RSA Public Key: (2048 bit)
                Modulus (2048 bit):
                    00:dc:20:ee:cd:59:8d:bf:75:bf:76:0d:da:20:54:
                    47:09:ec:07:73:50:b1:77:53:c1:c3:f8:94:57:fa:
                    b9:69:a3:8b:0d:49:b1:35:37:bd:91:ed:62:7f:fc:
                    0d:22:61:6f:09:2e:64:b3:5f:06:e9:e9:38:24:1d:
                    63:bf:4e:e8:4d:1f:08:cf:b0:68:80:e1:ba:c0:f8:
                    c8:f2:a2:eb:db:a4:35:bd:1d:3b:88:8f:39:97:e0:
                    50:26:e0:30:34:6c:72:4f:f8:4e:4f:9b:de:36:02:
                    be:0c:2e:ec:03:23:11:5f:1f:a2:44:31:f4:6f:2a:
                    43:58:2a:44:9d:f5:f7:62:6a:f2:e1:c7:b4:c3:1a:
                    35:83:3c:fe:cd:06:e0:5a:35:99:c6:d4:79:2c:bf:
                    c3:05:f9:17:29:6f:76:98:1f:d7:35:10:8f:74:28:
                    de:18:11:68:66:bf:09:5a:d5:09:e7:95:f9:8a:10:
                    a0:9b:af:33:d7:1f:67:48:55:94:fe:b9:36:23:a1:
                    d9:a5:88:93:32:31:08:a5:ae:e0:b0:6c:8d:83:dd:
                    f3:4d:2f:b1:36:4e:56:0d:cb:eb:8a:bc:0c:72:a2:
                    33:dc:88:6c:72:81:a3:89:30:65:01:65:6d:0b:75:
                    09:ce:fe:4f:13:6d:59:b9:a0:90:1a:06:fa:65:c3:
                    fb:5f
                Exponent: 65537 (0x10001)
        X509v3 extensions:
            X509v3 Subject Key Identifier: 
                8B:C5:2A:74:F0:07:A0:4E:60:AC:51:DE:5B:B5:A9:63:E1:2C:43:10
            X509v3 Authority Key Identifier: 
                keyid:A9:01:36:97:9B:1F:BA:12:6D:B5:F6:AF:F9:5C:D5:0E:DD:7C:60:27

            X509v3 Basic Constraints: 
                CA:FALSE
            X509v3 Key Usage: critical
                Digital Signature, Key Encipherment
            X509v3 Extended Key Usage: 
                TLS Web Server Authentication
            ROLE: 
                ..SAS
    Signature Algorithm: sha384WithRSAEncryption
        8c:bf:b0:51:b3:bd:c1:f2:98:e3:14:b3:73:5f:4b:4e:06:72:
        ca:bf:03:7c:5d:17:1c:4c:1d:ee:7e:27:b9:84:5d:f0:f4:0b:
        0f:63:6a:78:12:9a:ea:22:28:f1:70:66:f4:de:9a:59:22:1f:
        4e:e3:fc:f3:30:82:a1:1a:d3:64:7a:1d:1c:03:d0:3c:ff:cf:
        0f:18:47:3a:6d:ba:65:a4:77:bc:ad:57:57:b9:88:ec:eb:69:
        55:ec:d0:2e:c0:8a:46:67:59:da:da:c9:fc:c0:46:6f:96:94:
        d3:1c:39:29:3a:50:3f:da:b8:27:fa:4f:2c:85:60:a4:55:4c:
        e4:ec:1a:32:66:6a:48:7e:09:8f:41:a4:43:6d:17:66:c3:be:
        3f:4d:6f:66:f0:77:60:27:10:33:c6:79:01:a9:7b:dc:38:9a:
        e7:87:d3:54:ad:1f:f6:14:a0:dc:76:03:1d:f4:5a:54:4e:46:
        ef:04:56:89:8b:02:5c:1a:1e:ab:78:13:ac:15:ec:fb:03:31:
        5a:6c:ec:27:12:42:20:87:94:ab:39:ce:4f:03:f4:4f:87:9d:
        95:59:b1:58:8f:99:a8:49:cd:f1:dd:14:bf:04:fa:d1:09:05:
        28:ce:ff:d4:7f:f7:dc:c3:3d:82:15:cd:74:3a:3c:d5:0e:a9:
        f6:b4:dc:a5:09:b7:13:30:51:47:33:e6:1e:68:63:35:e3:fa:
        82:3f:7c:d6:3e:17:d0:50:d2:c8:e6:4c:91:a4:22:00:e2:63:
        8b:39:27:f3:e3:10:9c:ad:47:40:5e:4c:29:eb:7f:b6:54:b4:
        2d:75:3c:04:99:cc:33:99:ce:a0:17:45:d2:a9:74:b1:0c:a6:
        39:20:97:e6:47:52:ba:2f:05:f0:d4:cc:d2:b2:2e:68:ef:7c:
        96:44:e0:1b:3e:0d:d9:67:c0:7d:f8:6a:89:84:bb:fb:4e:52:
        a1:9f:37:16:4b:27:be:f1:c3:7a:1c:04:79:61:bb:1c:9b:44:
        f0:e9:be:f8:29:5e:18:e9:b8:f3:d0:d1:04:d3:30:e8:59:c5:
        a9:0a:df:ef:86:47:f3:41:1d:96:cf:29:92:4b:89:12:ac:19:
        19:cd:ed:d8:bd:85:a4:25:58:8b:0b:eb:6c:ca:14:e7:8c:80:
        7b:8e:a8:0f:2b:fa:be:15:34:33:8d:f3:eb:df:01:ec:55:45:
        e1:89:69:4c:c3:24:0a:04:7e:7e:a3:31:18:a1:a9:51:ae:2e:
        23:e4:0b:54:ec:ca:2e:35:c1:ab:fd:67:18:88:2d:fb:1a:a3:
        a4:f3:18:55:53:b1:09:5e:59:5e:a2:f3:6e:c9:06:22:f3:8d:
        b5:96:dd:84:9b:af:3a:fc
-----BEGIN CERTIFICATE-----
MIIFZDCCA0ygAwIBAgIJAOyS8vblrPFkMA0GCSqGSIb3DQEBDAUAMIGrMQswCQYD
VQQGEwJVUzEdMBsGA1UECAwURGlzdHJpY3Qgb2YgQ29sdW1iaWExEzARBgNVBAcM
Cldhc2hpbmd0b24xIjAgBgNVBAoMGVdpcmVsZXNzIElubm92YXRpb24gRm9ydW0x
IzAhBgNVBAsMGnd3dy53aXJlbGVzc2lubm92YXRpb24ub3JnMR8wHQYDVQQDDBZX
SW5uRm9ydW0gUlNBIFNBUyBDQS0xMB4XDTE2MDYzMDE2Mzc1M1oXDTE5MDkyODE2
Mzc1M1owgasxCzAJBgNVBAYTAlVTMR0wGwYDVQQIDBREaXN0cmljdCBvZiBDb2x1
bWJpYTETMBEGA1UEBwwKV2FzaGluZ3RvbjEiMCAGA1UECgwZV2lyZWxlc3MgSW5u
b3ZhdGlvbiBGb3J1bTEjMCEGA1UECwwad3d3LndpcmVsZXNzaW5ub3ZhdGlvbi5v
cmcxHzAdBgNVBAMMFlNBUyBFbmQtRW50aXR5IEV4YW1wbGUwggEiMA0GCSqGSIb3
DQEBAQUAA4IBDwAwggEKAoIBAQDcIO7NWY2/db92DdogVEcJ7AdzULF3U8HD+JRX
+rlpo4sNSbE1N72R7WJ//A0iYW8JLmSzXwbp6TgkHWO/TuhNHwjPsGiA4brA+Mjy
ouvbpDW9HTuIjzmX4FAm4DA0bHJP+E5Pm942Ar4MLuwDIxFfH6JEMfRvKkNYKkSd
9fdiavLhx7TDGjWDPP7NBuBaNZnG1Hksv8MF+Rcpb3aYH9c1EI90KN4YEWhmvwla
1QnnlfmKEKCbrzPXH2dIVZT+uTYjodmliJMyMQilruCwbI2D3fNNL7E2TlYNy+uK
vAxyojPciGxygaOJMGUBZW0LdQnO/k8TbVm5oJAaBvplw/tfAgMBAAGjgYgwgYUw
HQYDVR0OBBYEFIvFKnTwB6BOYKxR3lu1qWPhLEMQMB8GA1UdIwQYMBaAFKkBNpeb
H7oSbbX2r/lc1Q7dfGAnMAkGA1UdEwQCMAAwDgYDVR0PAQH/BAQDAgWgMBMGA1Ud
JQQMMAoGCCsGAQUFBwMBMBMGCisGAQQBguwRAQEEBQwDU0FTMA0GCSqGSIb3DQEB
DAUAA4ICAQCMv7BRs73B8pjjFLNzX0tOBnLKvwN8XRccTB3ufie5hF3w9AsPY2p4
EprqIijxcGb03ppZIh9O4/zzMIKhGtNkeh0cA9A8/88PGEc6bbplpHe8rVdXuYjs
62lV7NAuwIpGZ1na2sn8wEZvlpTTHDkpOlA/2rgn+k8shWCkVUzk7BoyZmpIfgmP
QaRDbRdmw74/TW9m8HdgJxAzxnkBqXvcOJrnh9NUrR/2FKDcdgMd9FpUTkbvBFaJ
iwJcGh6reBOsFez7AzFabOwnEkIgh5SrOc5PA/RPh52VWbFYj5moSc3x3RS/BPrR
CQUozv/Uf/fcwz2CFc10OjzVDqn2tNylCbcTMFFHM+YeaGM14/qCP3zWPhfQUNLI
5kyRpCIA4mOLOSfz4xCcrUdAXkwp63+2VLQtdTwEmcwzmc6gF0XSqXSxDKY5IJfm
R1K6LwXw1MzSsi5o73yWROAbPg3ZZ8B9+GqJhLv7TlKhnzcWSye+8cN6HAR5Ybsc
m0Tw6b74KV4Y6bjz0NEE0zDoWcWpCt/vhkfzQR2WzymSS4kSrBkZze3YvYWkJViL
C+tsyhTnjIB7jqgPK/q+FTQzjfPr3wHsVUXhiWlMwyQKBH5+ozEYoalRri4j5AtU
7MouNcGr/WcYiC37GqOk8xhVU7EJXlleovNuyQYi8421lt2Em686/A==
-----END CERTIFICATE-----
