Certificate:
    Data:
        Version: 3 (0x2)
        Serial Number: 16534221079554972643 (0xe5755a7844a65be3)
    Signature Algorithm: sha384WithRSAEncryption
        Issuer: C=US, ST=District of Columbia, L=Washington, O=Wireless Innovation Forum, OU=www.wirelessinnovation.org, CN=WInnForum RSA Root CA-1
        Validity
            Not Before: Sep 15 02:56:29 2017 GMT
            Not After : Sep 11 02:56:29 2032 GMT
        Subject: C=US, ST=District of Columbia, L=Washington, O=Wireless Innovation Forum, OU=www.wirelessinnovation.org, CN=WInnForum RSA CBSD CA-1
        Subject Public Key Info:
            Public Key Algorithm: rsaEncryption
                Public-Key: (4096 bit)
                Modulus:
                    00:d6:71:98:87:d4:24:0c:7e:e2:56:df:c3:16:1f:
                    59:e9:57:5f:54:a3:9b:08:90:ca:1f:0a:b0:9e:fc:
                    30:8d:2f:65:20:13:47:f5:4c:f0:a2:b5:5b:9b:58:
                    3b:e7:38:33:b3:1a:7f:3d:20:19:c2:09:99:fc:63:
                    dd:34:c2:8a:4d:ac:48:e4:de:8d:a1:7a:05:37:00:
                    8e:7a:8a:ba:95:0b:60:df:b4:41:f4:ac:a2:ae:9a:
                    21:e0:9d:21:6e:83:63:f8:21:5c:c4:b6:83:02:c3:
                    a5:69:4b:83:3d:1f:9e:2a:51:51:ec:63:a6:93:60:
                    99:7b:36:05:40:f3:28:5f:df:aa:62:81:a3:3e:bd:
                    57:cc:44:c2:3b:9d:43:5d:50:0a:04:58:74:9c:cb:
                    4d:98:e2:c1:1d:af:29:2d:17:85:51:33:de:0f:f8:
                    62:fe:a1:95:4a:23:95:90:0a:07:93:60:d2:18:30:
                    e9:e3:8c:e7:f9:e3:4d:9a:cc:a0:e2:5a:1b:0d:db:
                    a4:1c:53:8b:c4:9a:a2:56:f2:3f:5a:c6:b0:21:13:
                    a2:ae:c2:ed:02:bc:c8:fd:c5:c1:9a:56:e7:d2:c6:
                    c0:52:f8:27:1e:76:ca:b3:ec:ef:c6:3b:49:24:6f:
                    64:67:fc:ec:5b:19:60:97:ad:35:5e:30:fa:16:c2:
                    70:c5:06:db:7d:de:9e:16:ab:90:65:be:9c:bd:a7:
                    26:3c:5d:a3:31:f1:8f:66:35:21:91:54:9b:fb:6a:
                    80:69:61:c1:70:9e:e3:4f:97:22:0e:2e:34:1f:fd:
                    fa:37:a5:75:b5:0d:d0:54:29:83:78:90:6a:b5:2f:
                    4d:23:d9:19:e6:30:8f:00:2d:b1:c5:39:d0:5c:2b:
                    54:58:86:e5:06:f9:76:4f:69:0a:a4:be:58:73:e9:
                    5d:5c:51:86:69:ac:d9:a1:ed:eb:5b:fb:d4:bd:e6:
                    cc:75:9a:75:c9:25:3e:27:8e:57:af:46:82:59:c7:
                    c1:f5:29:19:42:50:5f:57:2d:35:bc:b4:b0:68:9f:
                    0b:bf:6a:95:74:ec:33:7f:56:d2:54:82:73:97:f1:
                    93:e6:05:d0:37:4e:dd:a9:b9:84:2e:24:b2:d9:55:
                    06:f9:0b:6c:9d:25:f2:63:69:e8:cf:ee:55:ec:a7:
                    05:86:48:57:72:8c:cd:72:2d:9f:f4:a4:3b:a3:bd:
                    2c:1c:82:ed:1e:34:e5:b7:ca:7d:8c:48:85:f3:62:
                    84:01:5c:84:7b:1c:e8:3c:72:ab:62:74:4d:f5:df:
                    71:24:03:e4:02:03:b5:fd:ea:ce:61:46:45:9f:19:
                    c4:ce:eb:2b:26:b3:3b:83:8d:40:5a:d5:0f:39:fb:
                    d5:85:55
                Exponent: 65537 (0x10001)
        X509v3 extensions:
            X509v3 Subject Key Identifier: 
                3A:DE:53:D0:FE:E3:D3:3B:89:63:DB:95:56:E6:96:D8:6B:A6:3D:CC
            X509v3 Authority Key Identifier: 
                keyid:00:A9:09:6B:FE:DA:E8:98:AD:DA:7D:79:F6:E3:FD:83:43:F2:B7:AD

            X509v3 Basic Constraints: critical
                CA:TRUE, pathlen:1
            X509v3 Key Usage: critical
                Digital Signature, Certificate Sign, CRL Sign
            X509v3 Certificate Policies: 
                Policy: 2.16.840.1.114412.2.1
                  CPS: https://www.digicert.com/CPS
                Policy: ROLE_CA
                Policy: ROLE_CBSD

    Signature Algorithm: sha384WithRSAEncryption
         51:1c:98:dc:2a:0f:68:c2:9d:d6:96:8e:92:58:de:78:89:cf:
         ef:88:c4:45:e1:f6:a6:89:f7:18:a9:9c:23:52:b0:b6:79:98:
         45:fe:d6:b9:41:43:ed:61:c7:71:1e:24:72:66:f8:8c:e1:e6:
         8d:8d:e7:d0:fe:02:85:6e:a8:74:ef:ff:f0:c7:83:0a:94:50:
         e4:22:ae:7a:2c:74:92:e7:bd:70:db:9f:00:04:5c:87:e0:d1:
         9c:32:58:79:df:83:7f:53:e7:6b:1a:c1:f8:df:82:b4:fd:11:
         72:fb:e9:8d:d4:11:78:09:0c:02:ab:aa:15:c5:3b:c1:05:17:
         b0:a3:37:69:ea:34:68:85:21:07:b3:5e:6e:20:82:a0:67:50:
         a0:8c:79:6c:ff:05:6f:0e:5a:24:43:7a:0c:59:1a:e0:08:f1:
         44:90:e6:09:66:ef:2a:25:22:a8:9d:d9:33:23:53:8b:56:b1:
         67:e1:a6:13:f2:f7:49:5d:68:5f:28:7b:1e:46:ae:ed:26:10:
         63:f6:e2:72:d8:98:e9:cb:55:4f:69:7b:52:b1:52:49:20:9e:
         0e:18:74:4b:4a:1e:c7:b1:e5:31:a8:d4:0c:a5:e9:9e:a8:7a:
         f3:2b:49:cb:bc:01:73:2b:57:7f:96:3c:21:39:d8:a0:2d:b4:
         ae:a1:0a:90:eb:4d:1e:cf:61:59:14:25:9f:02:3e:d0:89:3c:
         3e:5a:8b:53:0d:17:f0:42:90:df:1a:29:75:11:40:9d:5a:71:
         e8:05:b8:f0:9e:9f:89:fa:7c:82:59:82:0a:17:88:85:ee:e7:
         e6:fe:8c:3b:c8:21:65:4a:a3:3a:51:bf:f0:8e:f5:36:cb:9d:
         74:5f:39:a0:a4:30:0f:b8:27:be:a3:34:10:d5:fe:38:91:94:
         46:d1:bf:b8:ad:15:ea:2d:65:cb:10:fa:eb:1b:6f:0a:d2:bf:
         b2:13:f8:fa:0d:8e:2c:f5:d2:d3:e7:df:45:b4:4d:ed:d4:2e:
         de:35:a9:ec:9a:c8:02:a4:a5:da:2c:e5:ac:73:8f:94:e3:88:
         4f:34:73:0a:17:13:b8:b2:a6:f8:f7:0b:f7:e1:ab:5c:5c:cf:
         4c:d1:86:dd:7b:b5:b9:65:cb:78:d0:78:c4:c6:8b:e1:e6:6e:
         49:b6:31:aa:90:52:03:0e:1f:50:ed:47:30:a1:12:5d:43:c2:
         4f:99:ea:55:89:c0:60:9a:92:c5:bc:3b:92:69:a3:eb:66:49:
         5c:bb:89:89:cc:c1:59:01:4b:48:85:ef:ce:d0:5e:a5:97:f2:
         43:0c:d5:2c:19:fb:4c:3a:38:c1:7f:2a:c9:57:57:1b:4c:28:
         b3:75:8c:47:6e:38:ad:71
-----BEGIN CERTIFICATE-----
MIIGpzCCBI+gAwIBAgIJAOV1WnhEplvjMA0GCSqGSIb3DQEBDAUAMIGsMQswCQYD
VQQGEwJVUzEdMBsGA1UECAwURGlzdHJpY3Qgb2YgQ29sdW1iaWExEzARBgNVBAcM
Cldhc2hpbmd0b24xIjAgBgNVBAoMGVdpcmVsZXNzIElubm92YXRpb24gRm9ydW0x
IzAhBgNVBAsMGnd3dy53aXJlbGVzc2lubm92YXRpb24ub3JnMSAwHgYDVQQDDBdX
SW5uRm9ydW0gUlNBIFJvb3QgQ0EtMTAeFw0xNzA5MTUwMjU2MjlaFw0zMjA5MTEw
MjU2MjlaMIGsMQswCQYDVQQGEwJVUzEdMBsGA1UECAwURGlzdHJpY3Qgb2YgQ29s
dW1iaWExEzARBgNVBAcMCldhc2hpbmd0b24xIjAgBgNVBAoMGVdpcmVsZXNzIElu
bm92YXRpb24gRm9ydW0xIzAhBgNVBAsMGnd3dy53aXJlbGVzc2lubm92YXRpb24u
b3JnMSAwHgYDVQQDDBdXSW5uRm9ydW0gUlNBIENCU0QgQ0EtMTCCAiIwDQYJKoZI
hvcNAQEBBQADggIPADCCAgoCggIBANZxmIfUJAx+4lbfwxYfWelXX1SjmwiQyh8K
sJ78MI0vZSATR/VM8KK1W5tYO+c4M7Mafz0gGcIJmfxj3TTCik2sSOTejaF6BTcA
jnqKupULYN+0QfSsoq6aIeCdIW6DY/ghXMS2gwLDpWlLgz0fnipRUexjppNgmXs2
BUDzKF/fqmKBoz69V8xEwjudQ11QCgRYdJzLTZjiwR2vKS0XhVEz3g/4Yv6hlUoj
lZAKB5Ng0hgw6eOM5/njTZrMoOJaGw3bpBxTi8SaolbyP1rGsCEToq7C7QK8yP3F
wZpW59LGwFL4Jx52yrPs78Y7SSRvZGf87FsZYJetNV4w+hbCcMUG233enharkGW+
nL2nJjxdozHxj2Y1IZFUm/tqgGlhwXCe40+XIg4uNB/9+jeldbUN0FQpg3iQarUv
TSPZGeYwjwAtscU50FwrVFiG5Qb5dk9pCqS+WHPpXVxRhmms2aHt61v71L3mzHWa
dcklPieOV69GglnHwfUpGUJQX1ctNby0sGifC79qlXTsM39W0lSCc5fxk+YF0DdO
3am5hC4kstlVBvkLbJ0l8mNp6M/uVeynBYZIV3KMzXItn/SkO6O9LByC7R405bfK
fYxIhfNihAFchHsc6Dxyq2J0TfXfcSQD5AIDtf3qzmFGRZ8ZxM7rKyazO4ONQFrV
Dzn71YVVAgMBAAGjgckwgcYwHQYDVR0OBBYEFDreU9D+49M7iWPblVbmlthrpj3M
MB8GA1UdIwQYMBaAFACpCWv+2uiYrdp9efbj/YND8retMBIGA1UdEwEB/wQIMAYB
Af8CAQEwDgYDVR0PAQH/BAQDAgGGMGAGA1UdIARZMFcwNwYJYIZIAYb9bAIBMCow
KAYIKwYBBQUHAgEWHGh0dHBzOi8vd3d3LmRpZ2ljZXJ0LmNvbS9DUFMwDQYLKwYB
BAGC7BEBAQEwDQYLKwYBBAGC7BEBAQQwDQYJKoZIhvcNAQEMBQADggIBAFEcmNwq
D2jCndaWjpJY3niJz++IxEXh9qaJ9xipnCNSsLZ5mEX+1rlBQ+1hx3EeJHJm+Izh
5o2N59D+AoVuqHTv//DHgwqUUOQirnosdJLnvXDbnwAEXIfg0ZwyWHnfg39T52sa
wfjfgrT9EXL76Y3UEXgJDAKrqhXFO8EFF7CjN2nqNGiFIQezXm4ggqBnUKCMeWz/
BW8OWiRDegxZGuAI8USQ5glm7yolIqid2TMjU4tWsWfhphPy90ldaF8oex5Gru0m
EGP24nLYmOnLVU9pe1KxUkkgng4YdEtKHsex5TGo1Ayl6Z6oevMrScu8AXMrV3+W
PCE52KAttK6hCpDrTR7PYVkUJZ8CPtCJPD5ai1MNF/BCkN8aKXURQJ1acegFuPCe
n4n6fIJZggoXiIXu5+b+jDvIIWVKozpRv/CO9TbLnXRfOaCkMA+4J76jNBDV/jiR
lEbRv7itFeotZcsQ+usbbwrSv7IT+PoNjiz10tPn30W0Te3ULt41qeyayAKkpdos
5axzj5TjiE80cwoXE7iypvj3C/fhq1xcz0zRht17tblly3jQeMTGi+Hmbkm2MaqQ
UgMOH1DtRzChEl1Dwk+Z6lWJwGCaksW8O5Jpo+tmSVy7iYnMwVkBS0iF787QXqWX
8kMM1SwZ+0w6OMF/KslXVxtMKLN1jEduOK1x
-----END CERTIFICATE-----
