Certificate:
    Data:
        Version: 3 (0x2)
        Serial Number: 16534221079554972639 (0xe5755a7844a65bdf)
    Signature Algorithm: sha384WithRSAEncryption
        Issuer: C=US, ST=District of Columbia, L=Washington, O=Wireless Innovation Forum, OU=www.wirelessinnovation.org, CN=WInnForum RSA Root CA-1
        Validity
            Not Before: Sep 15 02:56:23 2017 GMT
            Not After : Sep 11 02:56:23 2032 GMT
        Subject: C=US, ST=District of Columbia, L=Washington, O=Wireless Innovation Forum, OU=www.wirelessinnovation.org, CN=WInnForum RSA Operator CA-1
        Subject Public Key Info:
            Public Key Algorithm: rsaEncryption
                Public-Key: (4096 bit)
                Modulus:
                    00:d7:46:6f:cb:b3:6e:50:cb:09:98:66:0e:56:7f:
                    fe:a9:66:0a:18:bf:ef:94:87:c1:b2:3b:b9:6e:50:
                    71:3a:47:c0:eb:f7:33:f5:2c:24:67:66:08:fc:35:
                    79:0a:23:81:d2:e4:b5:f5:58:7b:d6:dd:80:4e:72:
                    45:43:02:e8:7e:d7:fc:45:e1:d5:c7:32:4e:c1:b2:
                    c6:83:f6:02:b2:09:8c:2e:ca:a9:96:17:69:a6:d9:
                    50:3a:a3:a6:39:fc:aa:9f:ce:15:c8:17:8f:73:7e:
                    8e:2c:6b:19:66:11:91:27:bb:3d:48:3a:79:e9:0e:
                    1b:59:29:dc:83:0f:28:44:46:a5:2b:37:c9:2b:86:
                    98:42:18:cf:81:13:82:eb:a1:07:05:c3:f9:e7:b3:
                    2e:43:dc:d7:34:47:cb:98:93:7a:b7:aa:bd:96:08:
                    f3:29:18:a8:e5:ef:d6:94:f7:ee:31:d5:0d:47:32:
                    73:98:89:81:fc:ff:86:a3:b7:8b:b1:34:04:73:b4:
                    81:68:b1:e8:19:ab:c3:9e:79:fd:ae:15:6f:ea:ec:
                    c1:59:62:7e:0b:62:25:87:db:82:34:5c:a7:dc:f5:
                    da:e0:23:bf:74:6e:23:09:a5:42:f3:c5:84:eb:2d:
                    41:6f:a7:8f:55:5d:f7:65:85:2d:9e:a8:f6:7e:a1:
                    34:10:ad:b0:f6:1e:41:36:d6:ca:1c:93:4b:6d:8f:
                    38:82:e1:12:db:63:f5:55:79:60:bf:ca:75:98:c2:
                    fd:02:8d:db:f6:7e:6e:84:be:fc:4d:59:4b:68:c6:
                    bf:3e:df:b5:d9:b2:d9:8f:7c:0d:9d:1a:f1:23:5c:
                    14:55:36:24:9e:75:79:ed:7b:fe:4f:64:c3:5a:38:
                    6d:70:41:ee:02:10:05:f5:f0:50:be:58:f6:ca:b8:
                    2e:2b:c0:10:e5:00:67:a5:fd:23:39:4f:e0:70:19:
                    e3:99:27:b4:f5:f5:01:4a:d6:a9:e2:b3:d3:cf:43:
                    b0:d6:dc:04:8b:82:50:c0:3c:fd:a8:c1:f7:20:51:
                    69:47:c0:fe:d1:41:3e:67:75:a5:c8:e6:94:15:9b:
                    62:91:78:ea:1b:79:8e:94:0c:06:ef:66:7b:5f:2a:
                    2b:18:0f:b6:de:f2:39:d3:18:96:2c:41:42:90:bd:
                    90:83:f5:a9:9d:c1:fa:ae:cc:4c:34:03:d9:bf:e1:
                    25:14:a1:dc:14:dc:15:6f:c8:c1:3b:c7:01:09:88:
                    f3:6c:63:20:fc:32:d2:68:67:b3:96:c0:30:8e:ee:
                    93:bc:21:1c:b3:a6:de:b8:d1:a9:9f:7e:ee:a3:27:
                    7b:1c:c7:c4:0c:b2:e5:5e:7d:22:df:df:14:5a:ec:
                    40:ea:19
                Exponent: 65537 (0x10001)
        X509v3 extensions:
            X509v3 Subject Key Identifier: 
                2F:FC:00:5B:30:FF:F2:83:2F:C6:B3:5F:43:F0:48:EB:CB:C4:D1:08
            X509v3 Authority Key Identifier: 
                keyid:00:A9:09:6B:FE:DA:E8:98:AD:DA:7D:79:F6:E3:FD:83:43:F2:B7:AD

            X509v3 Basic Constraints: critical
                CA:TRUE, pathlen:0
            X509v3 Key Usage: critical
                Digital Signature, Certificate Sign, CRL Sign
            X509v3 Certificate Policies: 
                Policy: 2.16.840.1.114412.2.1
                  CPS: https://www.digicert.com/CPS
                Policy: ROLE_CA
                Policy: ROLE_OPERATOR

    Signature Algorithm: sha384WithRSAEncryption
         47:9c:9d:00:ef:cb:02:16:d3:a3:92:62:49:29:fb:a7:b9:14:
         77:ca:31:d6:8f:09:ed:93:26:e3:c7:b6:0b:44:17:4d:cc:31:
         89:09:0a:76:77:fd:e6:ab:8e:c9:4c:7f:b9:e1:09:73:82:ff:
         0e:76:95:f8:d8:38:ec:e3:e4:71:a2:86:39:0a:3a:1d:b7:51:
         e7:56:d4:59:59:89:1a:45:c8:3e:00:07:09:9a:97:cd:04:61:
         45:06:a1:e5:6c:a1:46:69:ec:56:12:b1:f9:9c:8f:72:49:09:
         a9:27:fa:60:2e:09:8a:53:30:7f:b7:5a:ed:b4:25:4c:c1:9a:
         7c:c8:24:96:bf:ca:af:d3:5e:e7:c5:b7:5a:02:e6:3f:dc:96:
         22:30:d3:75:af:9d:d3:bc:84:63:ce:59:dc:e8:4d:2d:b9:6f:
         1b:9b:7d:d0:15:67:2e:fd:a3:2a:26:9f:8b:6f:eb:b7:fc:36:
         27:33:c7:12:92:91:80:59:fb:e4:50:f1:9e:82:2f:50:75:4e:
         9a:c1:92:2b:b3:4b:2a:b4:ea:82:7d:9a:91:1b:71:2b:2d:16:
         9f:7b:fb:2e:1c:d8:3a:95:cb:0b:c5:64:10:df:e5:b6:21:9d:
         06:ec:47:9a:ee:ec:52:15:3c:4d:91:28:aa:7a:49:fd:a3:26:
         5b:b7:18:31:32:06:62:1b:2b:ba:81:95:43:e7:c9:f5:92:b2:
         ca:2a:ce:05:7a:8a:cd:96:07:f0:2a:b8:51:e7:18:2a:e8:63:
         93:b5:f2:2d:80:52:14:cd:98:ce:0a:20:90:61:e9:ba:02:66:
         78:83:fc:22:3a:f9:8c:36:b6:02:e3:dd:6f:28:cd:e6:cc:af:
         1a:72:bc:3e:54:74:93:57:9a:93:cf:b1:53:29:4b:c3:ad:46:
         50:f9:ce:dc:4c:13:92:e5:e3:2a:f6:3d:29:32:d5:f1:65:4e:
         9f:20:a7:13:40:13:b3:90:0e:55:99:d0:db:80:06:ea:b1:81:
         50:46:29:53:01:a6:15:7d:35:3f:7b:2c:e0:e9:66:fd:e2:06:
         dc:7c:6a:15:73:01:fb:fc:c4:db:48:97:b9:77:c5:dd:bb:f6:
         c9:25:de:26:7e:7f:5b:7b:e3:06:34:b9:92:17:b7:9c:bd:49:
         89:ae:bf:54:28:bd:b8:40:93:98:25:19:2a:3e:f4:e8:77:3b:
         3b:6c:40:30:0f:86:b6:02:12:3a:a9:dc:7a:72:d3:87:6d:e9:
         ad:69:c6:cd:02:e3:88:55:e0:3e:12:bb:f5:84:4d:87:01:82:
         44:6b:70:e0:1c:27:d6:26:30:ff:8f:27:1d:0d:4e:4e:8c:7a:
         47:c1:ba:80:0b:98:74:0f
-----BEGIN CERTIFICATE-----
MIIGqzCCBJOgAwIBAgIJAOV1WnhEplvfMA0GCSqGSIb3DQEBDAUAMIGsMQswCQYD
VQQGEwJVUzEdMBsGA1UECAwURGlzdHJpY3Qgb2YgQ29sdW1iaWExEzARBgNVBAcM
Cldhc2hpbmd0b24xIjAgBgNVBAoMGVdpcmVsZXNzIElubm92YXRpb24gRm9ydW0x
IzAhBgNVBAsMGnd3dy53aXJlbGVzc2lubm92YXRpb24ub3JnMSAwHgYDVQQDDBdX
SW5uRm9ydW0gUlNBIFJvb3QgQ0EtMTAeFw0xNzA5MTUwMjU2MjNaFw0zMjA5MTEw
MjU2MjNaMIGwMQswCQYDVQQGEwJVUzEdMBsGA1UECAwURGlzdHJpY3Qgb2YgQ29s
dW1iaWExEzARBgNVBAcMCldhc2hpbmd0b24xIjAgBgNVBAoMGVdpcmVsZXNzIElu
bm92YXRpb24gRm9ydW0xIzAhBgNVBAsMGnd3dy53aXJlbGVzc2lubm92YXRpb24u
b3JnMSQwIgYDVQQDDBtXSW5uRm9ydW0gUlNBIE9wZXJhdG9yIENBLTEwggIiMA0G
CSqGSIb3DQEBAQUAA4ICDwAwggIKAoICAQDXRm/Ls25QywmYZg5Wf/6pZgoYv++U
h8GyO7luUHE6R8Dr9zP1LCRnZgj8NXkKI4HS5LX1WHvW3YBOckVDAuh+1/xF4dXH
Mk7BssaD9gKyCYwuyqmWF2mm2VA6o6Y5/KqfzhXIF49zfo4saxlmEZEnuz1IOnnp
DhtZKdyDDyhERqUrN8krhphCGM+BE4LroQcFw/nnsy5D3Nc0R8uYk3q3qr2WCPMp
GKjl79aU9+4x1Q1HMnOYiYH8/4ajt4uxNARztIFosegZq8Oeef2uFW/q7MFZYn4L
YiWH24I0XKfc9drgI790biMJpULzxYTrLUFvp49VXfdlhS2eqPZ+oTQQrbD2HkE2
1sock0ttjziC4RLbY/VVeWC/ynWYwv0Cjdv2fm6EvvxNWUtoxr8+37XZstmPfA2d
GvEjXBRVNiSedXnte/5PZMNaOG1wQe4CEAX18FC+WPbKuC4rwBDlAGel/SM5T+Bw
GeOZJ7T19QFK1qnis9PPQ7DW3ASLglDAPP2owfcgUWlHwP7RQT5ndaXI5pQVm2KR
eOobeY6UDAbvZntfKisYD7be8jnTGJYsQUKQvZCD9amdwfquzEw0A9m/4SUUodwU
3BVvyME7xwEJiPNsYyD8MtJoZ7OWwDCO7pO8IRyzpt640amffu6jJ3scx8QMsuVe
fSLf3xRa7EDqGQIDAQABo4HJMIHGMB0GA1UdDgQWBBQv/ABbMP/ygy/Gs19D8Ejr
y8TRCDAfBgNVHSMEGDAWgBQAqQlr/tromK3afXn24/2DQ/K3rTASBgNVHRMBAf8E
CDAGAQH/AgEAMA4GA1UdDwEB/wQEAwIBhjBgBgNVHSAEWTBXMDcGCWCGSAGG/WwC
ATAqMCgGCCsGAQUFBwIBFhxodHRwczovL3d3dy5kaWdpY2VydC5jb20vQ1BTMA0G
CysGAQQBguwRAQEBMA0GCysGAQQBguwRAQEDMA0GCSqGSIb3DQEBDAUAA4ICAQBH
nJ0A78sCFtOjkmJJKfunuRR3yjHWjwntkybjx7YLRBdNzDGJCQp2d/3mq47JTH+5
4Qlzgv8OdpX42Djs4+RxooY5Cjodt1HnVtRZWYkaRcg+AAcJmpfNBGFFBqHlbKFG
aexWErH5nI9ySQmpJ/pgLgmKUzB/t1rttCVMwZp8yCSWv8qv017nxbdaAuY/3JYi
MNN1r53TvIRjzlnc6E0tuW8bm33QFWcu/aMqJp+Lb+u3/DYnM8cSkpGAWfvkUPGe
gi9QdU6awZIrs0sqtOqCfZqRG3ErLRafe/suHNg6lcsLxWQQ3+W2IZ0G7Eea7uxS
FTxNkSiqekn9oyZbtxgxMgZiGyu6gZVD58n1krLKKs4FeorNlgfwKrhR5xgq6GOT
tfItgFIUzZjOCiCQYem6AmZ4g/wiOvmMNrYC491vKM3mzK8acrw+VHSTV5qTz7FT
KUvDrUZQ+c7cTBOS5eMq9j0pMtXxZU6fIKcTQBOzkA5VmdDbgAbqsYFQRilTAaYV
fTU/eyzg6Wb94gbcfGoVcwH7/MTbSJe5d8Xdu/bJJd4mfn9be+MGNLmSF7ecvUmJ
rr9UKL24QJOYJRkqPvTodzs7bEAwD4a2AhI6qdx6ctOHbemtacbNAuOIVeA+Erv1
hE2HAYJEa3DgHCfWJjD/jycdDU5OjHpHwbqAC5h0Dw==
-----END CERTIFICATE-----
