Certificate:
    Data:
        Version: 3 (0x2)
        Serial Number:
            ec:92:f2:f6:e5:ac:f1:69
        Signature Algorithm: sha384WithRSAEncryption
        Issuer: C=US, ST=District of Columbia, L=Washington, O=Wireless Innovation Forum, OU=www.wirelessinnovation.org, CN=WInnForum RSA Root CA-1
        Validity
            Not Before: Jun 30 16:38:03 2016 GMT
            Not After : Jun 27 16:38:03 2031 GMT
        Subject: C=US, ST=District of Columbia, L=Washington, O=Wireless Innovation Forum, OU=www.wirelessinnovation.org, CN=WInnForum RSA PAL CA-1
        Subject Public Key Info:
            Public Key Algorithm: rsaEncryption
            RSA Public Key: (4096 bit)
                Modulus (4096 bit):
                    00:d1:26:df:57:bd:b0:40:00:43:a5:86:d2:c7:dd:
                    3d:a2:20:77:b0:01:a3:00:65:43:9f:b4:f2:4a:9a:
                    ef:cd:e7:cf:10:40:0d:0e:c1:15:24:71:8d:46:45:
                    cc:3b:4b:b9:e1:62:fa:ef:38:30:9f:6c:04:c4:69:
                    50:fe:88:a5:0a:7b:91:21:22:f1:de:bd:94:8d:25:
                    33:df:1b:a6:1b:82:5c:96:a7:6d:89:66:2c:26:b2:
                    b8:8a:12:98:8e:5d:b6:8d:92:c5:37:c8:03:e9:b1:
                    a0:8c:b5:08:d0:d6:27:eb:16:45:6b:b8:4a:54:23:
                    61:9e:eb:d3:70:d3:35:8c:12:a7:87:43:1e:43:91:
                    f7:5b:8c:90:d7:58:7b:71:ef:e9:b4:f1:f6:70:ad:
                    9a:21:d3:f3:f5:2d:61:25:67:fa:38:ac:cd:34:6c:
                    19:1a:b8:f3:51:97:0d:18:48:e8:4b:0f:82:67:e0:
                    e8:9b:f3:95:82:c0:25:00:4a:23:72:8b:45:de:d6:
                    23:d7:0d:4b:7b:42:a6:84:cb:b4:4b:e7:31:d3:37:
                    46:4c:bc:15:f7:3e:f6:d0:5b:f1:a0:cb:69:fe:d1:
                    06:f7:56:d6:a8:b6:4c:72:44:16:4c:ea:31:ef:aa:
                    2a:e3:f9:2c:2e:97:e8:1b:55:74:7d:c3:d8:ee:c1:
                    c0:4c:6d:0f:37:63:15:e3:32:51:5d:7f:8a:4e:50:
                    f4:b3:72:ff:72:fd:96:a2:fb:8a:80:20:53:75:0c:
                    5f:b8:17:c7:4e:bb:ae:03:32:f7:69:b4:39:1b:2d:
                    d8:6f:22:1e:fe:40:3a:c1:dc:e0:a6:39:54:d5:6a:
                    12:7c:11:aa:70:dd:60:d9:62:64:52:9f:87:16:99:
                    31:9b:7f:b6:93:c7:b1:33:22:26:7a:50:5b:c6:9b:
                    79:37:02:6c:29:db:6e:77:ad:db:9f:1d:7f:17:5a:
                    d0:10:3b:56:c6:83:d2:00:26:87:48:6a:b0:55:e9:
                    fc:85:40:68:18:ee:3d:a1:44:5a:0d:b7:a5:c3:de:
                    9d:e9:86:0d:23:22:7b:af:b2:ba:b9:a0:09:c8:de:
                    87:22:31:f4:ef:25:f3:38:88:e0:4a:ba:24:6c:d0:
                    79:66:08:60:1f:af:5c:56:36:10:92:d5:5d:c4:8f:
                    86:96:d8:82:f0:35:89:c5:d7:17:bc:eb:62:f1:87:
                    f2:42:b3:ac:02:ab:16:be:49:86:2c:53:82:67:bb:
                    33:98:c1:d8:e8:0b:f8:bc:d7:84:db:b2:84:f3:73:
                    da:b6:ff:bb:0d:39:80:db:be:9f:0c:3e:2a:8a:4e:
                    a5:b5:ff:ca:28:32:21:39:9a:06:b6:28:d1:c6:6a:
                    7c:72:7b
                Exponent: 65537 (0x10001)
        X509v3 extensions:
            X509v3 Subject Key Identifier: 
                A2:40:D5:9B:EE:D3:24:B7:40:35:39:5C:1A:70:B5:91:2D:A6:B8:A0
            X509v3 Authority Key Identifier: 
                keyid:E2:DE:71:95:0A:CB:DF:09:EB:DC:03:02:1F:E3:B8:9A:6C:87:54:88

            X509v3 Basic Constraints: critical
                CA:TRUE, pathlen:0
            X509v3 Key Usage: critical
                Digital Signature, Certificate Sign, CRL Sign
            ROLE: 
                0...PAL..CA
    Signature Algorithm: sha384WithRSAEncryption
        77:6e:d0:a9:54:3e:c4:40:3a:08:64:26:06:14:26:57:93:b3:
        e5:b3:f0:9f:52:11:0a:58:e4:78:a1:a6:22:2b:5d:72:97:55:
        05:e7:9f:39:63:9b:67:17:e6:91:2b:b3:4f:a4:c8:e8:19:aa:
        da:53:6b:7e:e4:46:b1:be:de:73:b1:ef:67:a1:5b:a1:9d:23:
        a0:9a:60:e5:e6:b7:d8:97:b1:ee:82:2f:ac:7f:35:b0:2d:36:
        1c:b1:44:13:99:6d:e8:3f:6b:c7:e0:86:b5:ac:b8:db:69:24:
        0e:ca:cc:c1:49:f7:95:bf:2d:78:7a:7c:9c:65:e5:e2:7e:25:
        ea:6b:82:28:4f:9f:aa:4c:2a:3d:ae:a5:47:d6:63:87:fd:b3:
        b6:35:ec:66:41:f5:3e:47:9d:c1:2a:1c:5b:48:6e:e6:55:7b:
        1a:c5:85:f2:e4:6c:95:80:26:f3:29:cb:8b:b7:4a:4c:a0:24:
        7e:b7:e2:2d:91:4f:9d:02:88:ed:c4:4e:4c:4e:71:fb:a0:55:
        c3:80:f9:ef:e0:7d:da:0a:09:e5:45:52:1b:4a:de:7f:55:d8:
        eb:bd:1a:b8:cc:73:d1:6f:e1:94:bf:42:44:64:c9:3f:1a:24:
        9b:d6:cc:99:14:01:6f:ab:c9:f0:8c:f7:5f:50:ca:5b:27:41:
        99:e1:c8:3b:ff:4d:9f:0a:9c:db:26:a4:88:74:15:bb:1e:42:
        44:08:3a:72:62:1c:04:ed:a5:4f:ee:28:68:81:bb:d5:ba:48:
        c5:30:1c:18:19:af:34:96:ca:04:4e:f1:fa:42:5b:9f:65:1c:
        dc:11:5c:dc:1a:8e:a6:35:20:b7:73:69:6e:36:ac:b7:cc:3d:
        2f:9f:ef:91:e5:4f:03:91:f5:25:86:cd:fc:dc:a9:8c:91:d1:
        c0:6c:89:8a:25:35:5e:de:8f:78:86:23:1b:60:fb:b6:06:36:
        fe:da:38:cf:0f:dc:82:ea:2a:39:2f:1b:cb:58:fb:7e:5c:b8:
        d4:63:82:c9:83:13:a6:bb:cf:65:73:e4:b9:20:7f:ff:ee:99:
        89:e2:77:ab:92:b0:55:fd:7a:a0:a4:7e:c0:f8:a4:bc:14:c2:
        d0:7d:bd:ca:0b:c2:68:10:de:0a:d4:67:de:78:ed:8d:88:fd:
        81:e0:9a:a5:86:94:40:4a:30:e3:7f:6f:ba:ff:dd:c9:88:f3:
        92:45:d3:e7:23:bb:7f:99:ed:6d:97:28:3d:36:55:ea:d9:b8:
        dc:e1:d6:4a:b7:86:53:99:0f:b4:30:9f:ba:3f:12:de:48:8f:
        84:69:d9:ad:c4:06:32:8a:df:9e:77:58:8c:f3:f7:f9:a0:65:
        fe:98:11:c8:36:11:53:58
-----BEGIN CERTIFICATE-----
MIIGXjCCBEagAwIBAgIJAOyS8vblrPFpMA0GCSqGSIb3DQEBDAUAMIGsMQswCQYD
VQQGEwJVUzEdMBsGA1UECAwURGlzdHJpY3Qgb2YgQ29sdW1iaWExEzARBgNVBAcM
Cldhc2hpbmd0b24xIjAgBgNVBAoMGVdpcmVsZXNzIElubm92YXRpb24gRm9ydW0x
IzAhBgNVBAsMGnd3dy53aXJlbGVzc2lubm92YXRpb24ub3JnMSAwHgYDVQQDDBdX
SW5uRm9ydW0gUlNBIFJvb3QgQ0EtMTAeFw0xNjA2MzAxNjM4MDNaFw0zMTA2Mjcx
NjM4MDNaMIGrMQswCQYDVQQGEwJVUzEdMBsGA1UECAwURGlzdHJpY3Qgb2YgQ29s
dW1iaWExEzARBgNVBAcMCldhc2hpbmd0b24xIjAgBgNVBAoMGVdpcmVsZXNzIElu
bm92YXRpb24gRm9ydW0xIzAhBgNVBAsMGnd3dy53aXJlbGVzc2lubm92YXRpb24u
b3JnMR8wHQYDVQQDDBZXSW5uRm9ydW0gUlNBIFBBTCBDQS0xMIICIjANBgkqhkiG
9w0BAQEFAAOCAg8AMIICCgKCAgEA0SbfV72wQABDpYbSx909oiB3sAGjAGVDn7Ty
SprvzefPEEANDsEVJHGNRkXMO0u54WL67zgwn2wExGlQ/oilCnuRISLx3r2UjSUz
3xumG4JclqdtiWYsJrK4ihKYjl22jZLFN8gD6bGgjLUI0NYn6xZFa7hKVCNhnuvT
cNM1jBKnh0MeQ5H3W4yQ11h7ce/ptPH2cK2aIdPz9S1hJWf6OKzNNGwZGrjzUZcN
GEjoSw+CZ+Dom/OVgsAlAEojcotF3tYj1w1Le0KmhMu0S+cx0zdGTLwV9z720Fvx
oMtp/tEG91bWqLZMckQWTOox76oq4/ksLpfoG1V0fcPY7sHATG0PN2MV4zJRXX+K
TlD0s3L/cv2WovuKgCBTdQxfuBfHTruuAzL3abQ5Gy3YbyIe/kA6wdzgpjlU1WoS
fBGqcN1g2WJkUp+HFpkxm3+2k8exMyImelBbxpt5NwJsKdtud63bnx1/F1rQEDtW
xoPSACaHSGqwVen8hUBoGO49oURaDbelw96d6YYNIyJ7r7K6uaAJyN6HIjH07yXz
OIjgSrokbNB5ZghgH69cVjYQktVdxI+GltiC8DWJxdcXvOti8YfyQrOsAqsWvkmG
LFOCZ7szmMHY6Av4vNeE27KE83Patv+7DTmA276fDD4qik6ltf/KKDIhOZoGtijR
xmp8cnsCAwEAAaOBgTB/MB0GA1UdDgQWBBSiQNWb7tMkt0A1OVwacLWRLaa4oDAf
BgNVHSMEGDAWgBTi3nGVCsvfCevcAwIf47iabIdUiDASBgNVHRMBAf8ECDAGAQH/
AgEAMA4GA1UdDwEB/wQEAwIBhjAZBgorBgEEAYLsEQEBBAswCQwDUEFMDAJDQTAN
BgkqhkiG9w0BAQwFAAOCAgEAd27QqVQ+xEA6CGQmBhQmV5Oz5bPwn1IRCljkeKGm
IitdcpdVBeefOWObZxfmkSuzT6TI6Bmq2lNrfuRGsb7ec7HvZ6FboZ0joJpg5ea3
2Jex7oIvrH81sC02HLFEE5lt6D9rx+CGtay422kkDsrMwUn3lb8teHp8nGXl4n4l
6muCKE+fqkwqPa6lR9Zjh/2ztjXsZkH1PkedwSocW0hu5lV7GsWF8uRslYAm8ynL
i7dKTKAkfrfiLZFPnQKI7cROTE5x+6BVw4D57+B92goJ5UVSG0ref1XY670auMxz
0W/hlL9CRGTJPxokm9bMmRQBb6vJ8Iz3X1DKWydBmeHIO/9Nnwqc2yakiHQVux5C
RAg6cmIcBO2lT+4oaIG71bpIxTAcGBmvNJbKBE7x+kJbn2Uc3BFc3BqOpjUgt3Np
bjast8w9L5/vkeVPA5H1JYbN/NypjJHRwGyJiiU1Xt6PeIYjG2D7tgY2/to4zw/c
guoqOS8by1j7fly41GOCyYMTprvPZXPkuSB//+6ZieJ3q5KwVf16oKR+wPikvBTC
0H29ygvCaBDeCtRn3njtjYj9geCapYaUQEow439vuv/dyYjzkkXT5yO7f5ntbZco
PTZV6tm43OHWSreGU5kPtDCfuj8S3kiPhGnZrcQGMorfnndYjPP3+aBl/pgRyDYR
U1g=
-----END CERTIFICATE-----
