Certificate:
    Data:
        Version: 3 (0x2)
        Serial Number:
            ec:92:f2:f6:e5:ac:f1:6c
        Signature Algorithm: sha384WithRSAEncryption
        Issuer: C=US, ST=District of Columbia, L=Washington, O=Wireless Innovation Forum, OU=www.wirelessinnovation.org, CN=WInnForum RSA Device Manufacturer CA-1
        Validity
            Not Before: Jun 30 16:38:07 2016 GMT
            Not After : Sep 28 16:38:07 2019 GMT
        Subject: C=US, ST=District of Columbia, L=Washington, O=Wireless Innovation Forum, OU=www.wirelessinnovation.org, CN=Device Manufacturer End-Entity Example
        Subject Public Key Info:
            Public Key Algorithm: rsaEncryption
            RSA Public Key: (2048 bit)
                Modulus (2048 bit):
                    00:e1:8c:ca:38:2c:e6:e8:90:8d:53:94:d2:1d:0a:
                    df:99:43:a1:64:38:90:2d:8e:6d:62:80:fb:ae:73:
                    94:9d:40:fe:e9:4f:8c:14:44:b8:7a:13:c6:3f:f1:
                    d7:cb:f6:8a:71:da:8a:37:72:1f:ea:b7:c5:be:0e:
                    ed:f3:7c:30:00:19:ba:fb:2a:65:e1:f8:fb:df:fc:
                    78:82:c5:04:10:c1:8d:a1:75:31:d9:d7:94:c9:84:
                    c2:33:33:28:76:d2:db:c3:24:d2:70:b3:5a:e4:a0:
                    f0:ab:87:10:a6:93:57:e8:cb:38:4d:1b:8a:65:12:
                    47:56:69:ef:9c:bd:9d:b9:d5:53:6f:bd:7c:ee:d2:
                    a8:6a:a0:a2:f7:51:a0:10:36:d4:69:4f:a8:70:44:
                    fe:72:1d:78:49:63:b4:c0:10:4b:83:02:ea:4a:ff:
                    9c:90:97:5c:33:71:bb:2a:e4:9a:60:5f:c4:39:9f:
                    1c:7d:44:50:05:7c:66:a6:81:79:94:7d:d9:cf:b4:
                    b9:89:c9:d5:e5:0c:1b:40:02:0e:c9:9e:53:77:4d:
                    72:d6:7c:7f:ee:da:43:8c:b4:d6:0b:f5:9a:fc:9e:
                    0e:28:41:45:22:5f:6f:0f:fc:a3:bd:70:e5:26:ee:
                    97:7f:6a:15:8a:9a:b8:19:47:f4:4e:9e:f1:9b:62:
                    17:0f
                Exponent: 65537 (0x10001)
        X509v3 extensions:
            X509v3 Subject Key Identifier: 
                F9:5C:9D:D0:FA:01:C9:26:7E:3D:34:70:8E:77:B2:92:03:DD:EA:31
            X509v3 Authority Key Identifier: 
                keyid:D1:B1:96:37:1E:39:CF:D9:7A:F2:34:44:E4:F1:5B:7C:B1:7C:B0:C0

            X509v3 Basic Constraints: 
                CA:FALSE
            X509v3 Key Usage: critical
                Digital Signature, Key Encipherment
            X509v3 Extended Key Usage: 
                TLS Web Server Authentication
            ROLE: 
                ..DEVICE
    Signature Algorithm: sha384WithRSAEncryption
        86:38:4c:f9:6b:37:d6:70:ca:c1:ae:53:85:2f:b2:62:ee:a8:
        ba:87:af:6b:93:0f:07:f8:72:0a:92:2c:95:f6:f1:26:58:7b:
        3c:37:51:13:7d:7a:95:66:8d:43:82:fe:e3:10:30:df:fe:aa:
        57:1f:99:fa:6b:65:f1:da:3d:6f:95:6d:96:59:cd:38:93:92:
        5d:b5:fc:2e:78:e0:04:8f:5b:93:2e:27:9c:c5:6a:58:42:90:
        6d:d0:84:5b:32:9a:ac:65:07:07:26:1b:5b:de:53:76:2b:9f:
        90:b7:fe:9b:54:07:56:df:57:4f:5d:af:95:04:8d:18:f4:28:
        9b:2a:b5:ed:b4:c1:4d:c6:8b:bc:38:98:d0:55:fa:ef:cc:30:
        6b:b2:58:13:22:b2:ee:71:7d:56:42:5b:5a:53:ae:ef:ec:31:
        44:20:13:f9:be:87:e7:01:d1:20:d6:cf:ab:b0:c8:08:40:58:
        c4:fe:d0:ec:37:8a:7f:d9:e1:21:da:cd:18:f1:50:fd:52:6d:
        bb:ef:0f:d8:c5:9f:58:24:a7:ee:1e:ea:f6:1d:ea:ee:76:e3:
        95:af:96:69:ed:2b:b9:4b:85:1a:5b:e5:19:ee:f3:eb:0f:e1:
        97:25:a4:41:65:86:7a:e8:88:4e:24:e7:33:5e:7d:3a:ef:9e:
        da:3c:43:1c:f8:81:1f:6a:ac:a2:55:e3:01:b2:78:04:3d:09:
        c4:bf:13:bf:06:ec:33:00:f3:8b:f8:ef:9c:f6:19:e4:d8:56:
        d0:11:5a:ed:f7:d8:6b:61:68:20:a1:41:b1:57:49:da:19:43:
        5e:d2:af:a0:5b:ef:ba:04:ab:7d:d1:3b:ae:54:89:e9:cb:f2:
        6e:73:a1:24:17:0f:9a:4c:be:34:ed:04:10:16:ea:ef:97:ce:
        d4:80:66:8d:dd:ef:88:f6:92:f2:c8:cf:47:96:24:5c:06:15:
        1e:28:d7:7b:64:de:45:7e:6a:45:b0:99:74:3c:b2:f3:d1:e6:
        49:8f:da:75:4d:aa:a7:fb:d4:71:ee:8c:b8:e4:f6:b5:7c:1b:
        64:79:38:aa:9c:82:38:84:68:db:f7:e7:2b:9f:60:9e:d4:47:
        9b:de:b3:8d:8c:29:8f:77:e6:c7:25:85:2a:f7:88:2d:24:1e:
        63:d7:f2:b4:fc:a8:6f:2d:d7:e5:d9:fc:1d:2a:2d:46:7c:02:
        3e:c3:d6:9f:38:21:89:20:30:11:aa:e8:a7:a6:e6:cd:95:84:
        e3:91:ed:79:b3:60:08:23:8e:62:2c:bc:be:fc:44:8c:e7:2a:
        d8:85:03:10:16:07:49:ba:1f:c3:91:00:d0:d6:0b:82:5f:e9:
        29:d7:15:7b:3c:58:cc:87
-----BEGIN CERTIFICATE-----
MIIFhzCCA2+gAwIBAgIJAOyS8vblrPFsMA0GCSqGSIb3DQEBDAUAMIG7MQswCQYD
VQQGEwJVUzEdMBsGA1UECAwURGlzdHJpY3Qgb2YgQ29sdW1iaWExEzARBgNVBAcM
Cldhc2hpbmd0b24xIjAgBgNVBAoMGVdpcmVsZXNzIElubm92YXRpb24gRm9ydW0x
IzAhBgNVBAsMGnd3dy53aXJlbGVzc2lubm92YXRpb24ub3JnMS8wLQYDVQQDDCZX
SW5uRm9ydW0gUlNBIERldmljZSBNYW51ZmFjdHVyZXIgQ0EtMTAeFw0xNjA2MzAx
NjM4MDdaFw0xOTA5MjgxNjM4MDdaMIG7MQswCQYDVQQGEwJVUzEdMBsGA1UECAwU
RGlzdHJpY3Qgb2YgQ29sdW1iaWExEzARBgNVBAcMCldhc2hpbmd0b24xIjAgBgNV
BAoMGVdpcmVsZXNzIElubm92YXRpb24gRm9ydW0xIzAhBgNVBAsMGnd3dy53aXJl
bGVzc2lubm92YXRpb24ub3JnMS8wLQYDVQQDDCZEZXZpY2UgTWFudWZhY3R1cmVy
IEVuZC1FbnRpdHkgRXhhbXBsZTCCASIwDQYJKoZIhvcNAQEBBQADggEPADCCAQoC
ggEBAOGMyjgs5uiQjVOU0h0K35lDoWQ4kC2ObWKA+65zlJ1A/ulPjBREuHoTxj/x
18v2inHaijdyH+q3xb4O7fN8MAAZuvsqZeH4+9/8eILFBBDBjaF1MdnXlMmEwjMz
KHbS28Mk0nCzWuSg8KuHEKaTV+jLOE0bimUSR1Zp75y9nbnVU2+9fO7SqGqgovdR
oBA21GlPqHBE/nIdeEljtMAQS4MC6kr/nJCXXDNxuyrkmmBfxDmfHH1EUAV8ZqaB
eZR92c+0uYnJ1eUMG0ACDsmeU3dNctZ8f+7aQ4y01gv1mvyeDihBRSJfbw/8o71w
5Sbul39qFYqauBlH9E6e8ZtiFw8CAwEAAaOBizCBiDAdBgNVHQ4EFgQU+Vyd0PoB
ySZ+PTRwjneykgPd6jEwHwYDVR0jBBgwFoAU0bGWNx45z9l68jRE5PFbfLF8sMAw
CQYDVR0TBAIwADAOBgNVHQ8BAf8EBAMCBaAwEwYDVR0lBAwwCgYIKwYBBQUHAwEw
FgYKKwYBBAGC7BEBAQQIDAZERVZJQ0UwDQYJKoZIhvcNAQEMBQADggIBAIY4TPlr
N9ZwysGuU4UvsmLuqLqHr2uTDwf4cgqSLJX28SZYezw3URN9epVmjUOC/uMQMN/+
qlcfmfprZfHaPW+VbZZZzTiTkl21/C544ASPW5MuJ5zFalhCkG3QhFsymqxlBwcm
G1veU3Yrn5C3/ptUB1bfV09dr5UEjRj0KJsqte20wU3Gi7w4mNBV+u/MMGuyWBMi
su5xfVZCW1pTru/sMUQgE/m+h+cB0SDWz6uwyAhAWMT+0Ow3in/Z4SHazRjxUP1S
bbvvD9jFn1gkp+4e6vYd6u5245WvlmntK7lLhRpb5Rnu8+sP4ZclpEFlhnroiE4k
5zNefTrvnto8Qxz4gR9qrKJV4wGyeAQ9CcS/E78G7DMA84v475z2GeTYVtARWu33
2GthaCChQbFXSdoZQ17Sr6Bb77oEq33RO65UienL8m5zoSQXD5pMvjTtBBAW6u+X
ztSAZo3d74j2kvLIz0eWJFwGFR4o13tk3kV+akWwmXQ8svPR5kmP2nVNqqf71HHu
jLjk9rV8G2R5OKqcgjiEaNv35yufYJ7UR5ves42MKY935sclhSr3iC0kHmPX8rT8
qG8t1+XZ/B0qLUZ8Aj7D1p84IYkgMBGq6Kem5s2VhOOR7XmzYAgjjmIsvL78RIzn
KtiFAxAWB0m6H8ORANDWC4Jf6SnXFXs8WMyH
-----END CERTIFICATE-----
