Certificate:
    Data:
        Version: 3 (0x2)
        Serial Number: 18252460957402756210 (0xfd4dc488faad7472)
    Signature Algorithm: sha384WithRSAEncryption
        Issuer: C=US, ST=District of Columbia, L=Washington, O=Wireless Innovation Forum, OU=www.wirelessinnovation.org, CN=WInnForum RSA Root CA-1
        Validity
            Not Before: Aug  2 19:12:52 2016 GMT
            Not After : Jul 30 19:12:52 2031 GMT
        Subject: C=US, ST=District of Columbia, L=Washington, O=Wireless Innovation Forum, OU=www.wirelessinnovation.org, CN=WInnForum RSA Device CA-1
        Subject Public Key Info:
            Public Key Algorithm: rsaEncryption
                Public-Key: (4096 bit)
                Modulus:
                    00:db:15:0a:10:6d:5a:72:2f:45:d0:bd:d0:76:3a:
                    3c:30:bd:27:08:f2:d8:f0:99:df:c1:1c:7e:c9:65:
                    c8:5f:98:62:c4:27:e3:db:f3:f7:81:f4:ca:76:f5:
                    47:bf:18:1e:90:54:41:c7:22:e2:e3:2d:3b:e6:35:
                    cc:97:9a:62:a0:04:13:28:b4:42:d7:3a:ec:70:3c:
                    80:a9:5f:3d:60:3b:d3:c6:ce:da:21:4f:f3:62:96:
                    75:e7:95:27:99:d5:21:5e:5b:c2:f9:7b:65:bf:7e:
                    46:13:0d:c6:fa:af:b4:d1:2c:e5:56:bd:86:3c:e6:
                    e9:d3:73:67:94:39:65:55:74:d6:ba:e4:a9:8b:18:
                    94:cc:ce:68:69:52:38:17:64:45:5b:12:2b:f1:c7:
                    ae:4c:05:b8:9e:d6:bf:f3:08:b7:ee:48:24:2a:8a:
                    e0:6a:f9:81:e8:28:11:38:16:fe:30:86:7b:ed:4f:
                    1c:93:40:9b:2e:28:16:23:d9:6a:cc:62:01:63:d3:
                    f1:23:54:fd:7a:41:37:07:a9:f4:c8:40:17:03:81:
                    93:d2:9b:b8:67:58:52:52:60:9f:27:f3:93:cd:48:
                    44:fd:ce:95:88:99:a6:91:82:97:92:59:d9:15:41:
                    c9:d0:27:a2:2c:63:15:56:4f:25:39:d0:ab:55:50:
                    c7:9e:9b:53:f6:61:de:ea:24:cf:0d:06:0c:61:39:
                    80:4d:e4:c7:ce:a8:5e:45:11:83:73:97:36:f8:00:
                    9d:d2:5a:b1:90:7e:f1:05:f5:fb:bd:84:eb:98:ab:
                    06:91:ec:0d:3b:f9:f9:66:e9:b8:37:44:ba:a0:a4:
                    a0:18:e3:bc:0f:de:9f:8b:75:c2:ec:2b:22:da:b9:
                    59:d0:22:37:57:8b:96:25:35:bd:06:33:8a:53:e5:
                    aa:d7:9b:a4:cf:52:f1:38:94:cf:07:bf:9f:72:8e:
                    52:9c:21:2b:67:42:03:93:08:37:16:d7:b2:4a:04:
                    c7:0a:84:5a:12:a6:21:37:6a:57:d9:53:50:7b:00:
                    4d:35:56:ac:30:e5:f2:51:a0:4f:a6:e8:b9:48:14:
                    13:c8:f9:51:7a:af:51:63:f0:f5:21:97:e8:2d:be:
                    e2:53:ba:b3:07:73:f2:24:e6:f4:67:c1:78:d3:9d:
                    e9:92:69:de:cc:f6:66:63:1c:1a:c0:ee:57:c2:46:
                    b7:fc:fe:f1:d1:d5:cc:8c:8e:d0:9d:38:e7:87:f3:
                    3e:94:c6:90:a2:f9:52:02:dc:02:78:77:23:4d:b1:
                    ad:59:ce:1e:cc:05:d1:04:65:ca:0d:cf:ce:7d:d1:
                    63:41:41:66:13:ce:20:a0:2e:a0:36:5e:b0:2f:d3:
                    83:db:99
                Exponent: 65537 (0x10001)
        X509v3 extensions:
            X509v3 Subject Key Identifier: 
                96:81:B4:6F:64:79:5D:9E:B7:3C:F7:C2:AC:89:B1:40:2A:CD:C5:8B
            X509v3 Authority Key Identifier: 
                keyid:02:DD:01:BF:A7:5F:CB:3E:D4:EC:63:C5:65:F6:BC:78:12:EB:23:ED

            X509v3 Basic Constraints: critical
                CA:TRUE, pathlen:0
            X509v3 Key Usage: critical
                Digital Signature, Certificate Sign, CRL Sign
            ROLE: 
                0
..CBSD..CA
    Signature Algorithm: sha384WithRSAEncryption
         c3:2e:a1:1f:d2:7f:ca:99:ff:3f:7f:a9:71:c0:17:b0:73:e3:
         bd:bc:62:07:06:78:1b:dd:ff:d5:00:8c:75:67:57:0e:28:05:
         75:d7:b7:94:ac:50:a2:51:85:d4:dc:d3:d6:e9:b4:41:a5:33:
         17:be:15:fd:4c:92:6a:e2:1f:5a:8d:c4:09:39:00:32:a0:6b:
         9b:52:d2:c8:5c:db:64:75:99:27:d5:0f:77:eb:74:f8:90:40:
         14:36:cf:5a:5a:e4:0f:7b:e7:41:39:cf:34:21:e6:b1:93:d5:
         fe:dd:19:15:c5:ae:c3:bd:4c:cf:dc:b9:de:58:d9:52:ab:93:
         f6:c5:cb:bd:40:3d:44:6c:16:f6:b6:c2:68:84:9f:0e:b8:80:
         93:f3:b7:49:d9:78:91:7d:ce:bf:17:82:52:15:ee:15:33:99:
         3c:14:37:9f:6e:a9:ed:74:0e:f6:22:0e:87:70:a6:38:c2:6b:
         cd:8d:0a:0d:8f:41:21:75:fa:c4:12:94:c5:5b:28:af:70:4d:
         95:8d:74:5c:fc:a3:34:1d:95:ac:e3:54:6b:25:97:2c:45:b6:
         24:66:1a:e4:b8:ed:1e:7f:ca:cf:c7:8d:7f:29:0a:4f:5e:32:
         04:17:11:5d:f9:1a:d5:2f:9b:cd:1a:06:d4:2d:a5:61:ed:0f:
         6c:9a:ff:90:ba:ff:d2:81:fc:70:8a:fe:e9:c0:77:93:5f:4d:
         d7:ec:66:18:25:b3:74:ce:21:f4:ca:68:80:37:1d:2d:a2:c2:
         11:e9:00:b4:fa:c0:5a:4e:8e:04:0c:6c:ba:5b:4a:ac:b9:10:
         eb:7c:c1:6d:fc:de:b5:8b:75:a4:97:62:03:7c:23:3e:d9:65:
         5c:11:d7:8e:44:c8:be:1c:d8:26:0e:a8:b0:fe:a4:91:ec:31:
         80:68:fd:23:b1:b9:83:1a:14:72:8e:ee:c0:3a:98:1b:82:63:
         6e:9a:d7:71:ce:fa:e6:61:ef:0e:0d:a6:77:20:6d:44:1a:18:
         c3:b7:ad:ae:90:bd:a6:ae:30:64:cd:4b:b1:c9:de:d1:68:63:
         e7:dc:98:fa:84:cb:7e:28:b6:cc:e5:dc:1f:29:c9:ce:c0:26:
         f5:5c:51:c8:1c:ac:00:37:fc:8f:2d:45:49:30:08:4d:f5:6b:
         3e:8c:be:08:a7:25:3f:44:99:c7:ab:7f:5b:ab:57:74:81:3d:
         72:9b:da:94:42:48:71:ea:9f:39:d5:6a:b0:40:16:96:76:65:
         6b:b5:73:c5:35:89:fc:b4:3e:70:aa:b5:e8:31:c2:66:f8:ff:
         19:12:d3:ea:d9:5e:86:01:7a:bb:db:9f:98:65:1c:76:9e:b8:
         46:ca:61:8d:ea:e6:41:87
-----BEGIN CERTIFICATE-----
MIIGYzCCBEugAwIBAgIJAP1NxIj6rXRyMA0GCSqGSIb3DQEBDAUAMIGsMQswCQYD
VQQGEwJVUzEdMBsGA1UECAwURGlzdHJpY3Qgb2YgQ29sdW1iaWExEzARBgNVBAcM
Cldhc2hpbmd0b24xIjAgBgNVBAoMGVdpcmVsZXNzIElubm92YXRpb24gRm9ydW0x
IzAhBgNVBAsMGnd3dy53aXJlbGVzc2lubm92YXRpb24ub3JnMSAwHgYDVQQDDBdX
SW5uRm9ydW0gUlNBIFJvb3QgQ0EtMTAeFw0xNjA4MDIxOTEyNTJaFw0zMTA3MzAx
OTEyNTJaMIGuMQswCQYDVQQGEwJVUzEdMBsGA1UECAwURGlzdHJpY3Qgb2YgQ29s
dW1iaWExEzARBgNVBAcMCldhc2hpbmd0b24xIjAgBgNVBAoMGVdpcmVsZXNzIElu
bm92YXRpb24gRm9ydW0xIzAhBgNVBAsMGnd3dy53aXJlbGVzc2lubm92YXRpb24u
b3JnMSIwIAYDVQQDDBlXSW5uRm9ydW0gUlNBIERldmljZSBDQS0xMIICIjANBgkq
hkiG9w0BAQEFAAOCAg8AMIICCgKCAgEA2xUKEG1aci9F0L3Qdjo8ML0nCPLY8Jnf
wRx+yWXIX5hixCfj2/P3gfTKdvVHvxgekFRBxyLi4y075jXMl5pioAQTKLRC1zrs
cDyAqV89YDvTxs7aIU/zYpZ155UnmdUhXlvC+Xtlv35GEw3G+q+00SzlVr2GPObp
03NnlDllVXTWuuSpixiUzM5oaVI4F2RFWxIr8ceuTAW4nta/8wi37kgkKorgavmB
6CgROBb+MIZ77U8ck0CbLigWI9lqzGIBY9PxI1T9ekE3B6n0yEAXA4GT0pu4Z1hS
UmCfJ/OTzUhE/c6ViJmmkYKXklnZFUHJ0CeiLGMVVk8lOdCrVVDHnptT9mHe6iTP
DQYMYTmATeTHzqheRRGDc5c2+ACd0lqxkH7xBfX7vYTrmKsGkewNO/n5Zum4N0S6
oKSgGOO8D96fi3XC7Csi2rlZ0CI3V4uWJTW9BjOKU+Wq15ukz1LxOJTPB7+fco5S
nCErZ0IDkwg3FteySgTHCoRaEqYhN2pX2VNQewBNNVasMOXyUaBPpui5SBQTyPlR
eq9RY/D1IZfoLb7iU7qzB3PyJOb0Z8F4053pkmnezPZmYxwawO5Xwka3/P7x0dXM
jI7QnTjnh/M+lMaQovlSAtwCeHcjTbGtWc4ezAXRBGXKDc/OfdFjQUFmE84goC6g
Nl6wL9OD25kCAwEAAaOBgzCBgDAdBgNVHQ4EFgQUloG0b2R5XZ63PPfCrImxQCrN
xYswHwYDVR0jBBgwFoAUAt0Bv6dfyz7U7GPFZfa8eBLrI+0wEgYDVR0TAQH/BAgw
BgEB/wIBADAOBgNVHQ8BAf8EBAMCAYYwGgYKKwYBBAGC7BEBAQQMMAoMBENCU0QM
AkNBMA0GCSqGSIb3DQEBDAUAA4ICAQDDLqEf0n/Kmf8/f6lxwBewc+O9vGIHBngb
3f/VAIx1Z1cOKAV117eUrFCiUYXU3NPW6bRBpTMXvhX9TJJq4h9ajcQJOQAyoGub
UtLIXNtkdZkn1Q9363T4kEAUNs9aWuQPe+dBOc80Ieaxk9X+3RkVxa7DvUzP3Lne
WNlSq5P2xcu9QD1EbBb2tsJohJ8OuICT87dJ2XiRfc6/F4JSFe4VM5k8FDefbqnt
dA72Ig6HcKY4wmvNjQoNj0EhdfrEEpTFWyivcE2VjXRc/KM0HZWs41RrJZcsRbYk
ZhrkuO0ef8rPx41/KQpPXjIEFxFd+RrVL5vNGgbULaVh7Q9smv+Quv/Sgfxwiv7p
wHeTX03X7GYYJbN0ziH0ymiANx0tosIR6QC0+sBaTo4EDGy6W0qsuRDrfMFt/N61
i3Wkl2IDfCM+2WVcEdeORMi+HNgmDqiw/qSR7DGAaP0jsbmDGhRyju7AOpgbgmNu
mtdxzvrmYe8ODaZ3IG1EGhjDt62ukL2mrjBkzUuxyd7RaGPn3Jj6hMt+KLbM5dwf
KcnOwCb1XFHIHKwAN/yPLUVJMAhN9Ws+jL4IpyU/RJnHq39bq1d0gT1ym9qUQkhx
6p851WqwQBaWdmVrtXPFNYn8tD5wqrXoMcJm+P8ZEtPq2V6GAXq725+YZRx2nrhG
ymGN6uZBhw==
-----END CERTIFICATE-----
