Certificate:
    Data:
        Version: 3 (0x2)
        Serial Number: 16534221079554972637 (0xe5755a7844a65bdd)
    Signature Algorithm: sha384WithRSAEncryption
        Issuer: C=US, ST=District of Columbia, L=Washington, O=Wireless Innovation Forum, OU=www.wirelessinnovation.org, CN=WInnForum RSA Root CA-1
        Validity
            Not Before: Sep 15 02:56:22 2017 GMT
            Not After : Sep 11 02:56:22 2032 GMT
        Subject: C=US, ST=District of Columbia, L=Washington, O=Wireless Innovation Forum, OU=www.wirelessinnovation.org, CN=WInnForum RSA SAS CA-1
        Subject Public Key Info:
            Public Key Algorithm: rsaEncryption
                Public-Key: (4096 bit)
                Modulus:
                    00:ca:8f:fc:af:23:e6:8e:e9:80:95:b7:0a:6f:3c:
                    d8:73:c0:a7:74:21:69:8a:9e:a4:6c:58:f8:10:ff:
                    15:47:28:c1:87:b0:d6:62:cd:7b:3b:07:2f:92:f9:
                    1b:75:e8:af:79:f1:ad:ec:92:c9:54:a3:c3:ec:c4:
                    28:1c:e2:6d:87:47:d1:1b:a2:de:c7:52:b1:08:e4:
                    72:82:ca:65:12:d0:2b:2c:54:35:74:a8:f3:36:5b:
                    34:98:cf:1e:05:45:15:0d:27:10:7e:71:0b:90:05:
                    fe:74:e1:61:39:e8:97:0e:73:44:b8:17:8b:9f:5b:
                    58:a5:1d:09:f2:ac:60:e9:b6:1b:de:41:82:f2:d0:
                    45:f1:4e:61:2a:53:dc:5f:ae:1e:91:1c:52:bd:98:
                    26:88:22:73:a9:75:14:bc:be:bf:e7:42:e6:6a:9c:
                    00:98:5b:79:f1:a9:92:6a:ae:9b:76:7b:2d:35:e2:
                    13:1d:4c:04:9d:8e:84:7b:02:8c:fe:5c:be:7b:7f:
                    ef:29:e9:e9:c6:9e:1b:a1:ba:b9:fa:3a:24:9d:39:
                    92:ab:8c:31:77:65:ac:03:3e:ae:87:1a:eb:b1:2d:
                    89:48:ac:96:a7:07:25:f5:c9:0b:bb:21:e0:1e:77:
                    13:80:44:b6:34:69:21:33:c9:32:35:f3:75:20:17:
                    9e:37:5c:a6:df:5b:63:d2:cf:c2:6f:7f:62:bb:2d:
                    c5:cc:25:4e:45:f6:e6:55:f6:e1:6b:0b:03:26:b7:
                    00:9c:16:48:45:34:cf:bd:f2:a7:90:da:49:02:f1:
                    34:14:46:57:fb:d2:9c:47:27:3a:2e:d5:14:61:4f:
                    54:19:01:82:95:e1:10:cb:e9:88:52:75:5f:c2:b4:
                    f6:0f:9e:c0:13:8e:ad:c3:be:bc:11:c0:ff:0f:06:
                    fa:a7:8c:fc:d0:d9:d8:59:da:bd:16:46:8b:c2:0f:
                    d6:f3:49:f5:8f:bd:5f:52:0e:95:8e:e2:70:2d:eb:
                    10:2e:80:7f:af:1e:03:e3:4b:0d:c9:99:3e:ba:4e:
                    52:7d:74:d5:b0:c5:ab:de:fe:58:14:7e:7f:e0:15:
                    18:9a:a4:fa:93:42:a4:43:92:3f:c7:1a:0e:60:74:
                    74:17:33:51:e1:92:cf:d6:e2:22:33:2d:0e:df:67:
                    79:95:ab:28:d3:c8:e1:42:98:eb:80:f0:5d:4e:69:
                    ba:73:d8:0b:74:60:8c:98:7b:8e:3c:18:63:4b:b6:
                    f8:82:49:53:f2:38:8f:9a:92:3b:f5:bb:2a:18:56:
                    9a:1d:51:61:ec:b8:fc:f2:d5:57:c5:c2:7c:5a:df:
                    cb:66:4a:32:ba:80:d4:9c:46:fb:88:71:93:20:27:
                    59:7c:9b
                Exponent: 65537 (0x10001)
        X509v3 extensions:
            X509v3 Subject Key Identifier: 
                3D:B9:CA:14:D9:7A:FC:60:67:07:13:29:78:DC:FA:C2:AE:67:04:81
            X509v3 Authority Key Identifier: 
                keyid:00:A9:09:6B:FE:DA:E8:98:AD:DA:7D:79:F6:E3:FD:83:43:F2:B7:AD

            X509v3 Basic Constraints: critical
                CA:TRUE, pathlen:0
            X509v3 Key Usage: critical
                Digital Signature, Certificate Sign, CRL Sign
            X509v3 Certificate Policies: 
                Policy: 2.16.840.1.114412.2.1
                  CPS: https://www.digicert.com/CPS
                Policy: ROLE_CA
                Policy: ROLE_SAS

    Signature Algorithm: sha384WithRSAEncryption
         74:98:29:5e:83:1d:40:25:60:4d:30:a1:43:93:ae:a9:67:cb:
         dc:f6:bf:08:ca:15:40:89:cc:d5:06:4a:54:fe:80:bf:9b:7a:
         67:ef:bd:31:1b:05:91:9c:cb:df:49:9e:00:b9:28:ef:27:9d:
         4f:d3:40:3c:3c:99:b0:79:ad:22:7a:70:58:8c:cd:92:05:8c:
         d3:76:40:1a:5d:83:31:2b:87:c0:f0:dd:86:ac:0b:cf:2f:30:
         94:e6:6a:7d:7d:1f:27:dd:e5:ab:38:23:3d:8c:52:fb:de:8f:
         61:52:4c:c4:33:37:d6:af:9c:69:80:77:69:36:3b:65:81:33:
         55:fc:7c:fc:ca:e0:76:cb:2f:39:fc:9f:86:83:67:24:0c:3f:
         c6:57:4a:9d:d5:63:46:4f:da:9c:ef:9b:91:c2:2f:ff:1a:58:
         18:41:26:da:ba:42:f9:2b:95:e4:6f:d8:4a:33:85:85:59:4c:
         72:24:74:f7:36:df:18:de:e0:ec:cd:de:d1:a4:67:00:b1:6f:
         3f:00:94:d6:68:13:0b:b4:38:85:c9:8c:f2:5b:71:2e:ec:6d:
         9d:e5:f1:53:12:95:5f:1a:79:7c:20:4b:ec:ca:96:f6:c1:a3:
         a9:2a:14:66:29:25:13:9e:e6:cf:9f:47:7a:70:e7:dc:48:5a:
         3f:e8:ae:6d:de:6c:e8:5f:32:df:73:3f:45:28:02:d7:c9:ae:
         5d:94:9c:a1:16:c5:e4:1f:6a:85:8d:63:c3:bf:e9:48:dc:cb:
         50:56:68:fe:23:a1:75:10:e5:2c:c3:c0:ad:c7:82:a3:81:65:
         8d:ca:e4:e6:90:e3:42:33:db:94:2d:59:1a:ab:5f:67:76:74:
         e8:6d:f5:12:65:52:ba:5c:8b:22:af:4a:d4:7a:1b:8a:26:e8:
         44:8e:40:f8:0c:25:fa:81:af:1d:b0:be:9c:71:42:35:22:77:
         c4:8c:31:e0:09:4b:57:07:96:d3:13:8b:2f:28:cd:7a:9a:4f:
         be:cd:eb:bc:f2:97:a8:0e:f6:38:d3:5f:2a:6f:ef:70:75:5b:
         b0:4e:53:76:d5:d4:d4:97:42:d4:9a:bb:bd:0b:eb:1b:ff:50:
         1b:b7:2a:78:78:c2:1c:9e:bf:98:c8:2a:be:ce:71:8c:6f:b6:
         fd:bb:28:40:5d:15:35:c1:20:0c:57:a6:7a:e2:23:15:93:fe:
         4e:67:a3:f1:fd:c4:fd:82:88:59:7e:c3:d6:7d:72:bb:5d:3f:
         a3:d3:c8:b9:bc:6f:c4:ad:69:ef:eb:1e:c9:bb:ba:c8:4f:1a:
         b7:dc:bb:27:f5:90:0a:3e:b5:1a:ca:79:43:ee:81:97:ea:18:
         ff:46:84:96:12:21:f9:ff
-----BEGIN CERTIFICATE-----
MIIGpjCCBI6gAwIBAgIJAOV1WnhEplvdMA0GCSqGSIb3DQEBDAUAMIGsMQswCQYD
VQQGEwJVUzEdMBsGA1UECAwURGlzdHJpY3Qgb2YgQ29sdW1iaWExEzARBgNVBAcM
Cldhc2hpbmd0b24xIjAgBgNVBAoMGVdpcmVsZXNzIElubm92YXRpb24gRm9ydW0x
IzAhBgNVBAsMGnd3dy53aXJlbGVzc2lubm92YXRpb24ub3JnMSAwHgYDVQQDDBdX
SW5uRm9ydW0gUlNBIFJvb3QgQ0EtMTAeFw0xNzA5MTUwMjU2MjJaFw0zMjA5MTEw
MjU2MjJaMIGrMQswCQYDVQQGEwJVUzEdMBsGA1UECAwURGlzdHJpY3Qgb2YgQ29s
dW1iaWExEzARBgNVBAcMCldhc2hpbmd0b24xIjAgBgNVBAoMGVdpcmVsZXNzIElu
bm92YXRpb24gRm9ydW0xIzAhBgNVBAsMGnd3dy53aXJlbGVzc2lubm92YXRpb24u
b3JnMR8wHQYDVQQDDBZXSW5uRm9ydW0gUlNBIFNBUyBDQS0xMIICIjANBgkqhkiG
9w0BAQEFAAOCAg8AMIICCgKCAgEAyo/8ryPmjumAlbcKbzzYc8CndCFpip6kbFj4
EP8VRyjBh7DWYs17OwcvkvkbdeivefGt7JLJVKPD7MQoHOJth0fRG6Lex1KxCORy
gsplEtArLFQ1dKjzNls0mM8eBUUVDScQfnELkAX+dOFhOeiXDnNEuBeLn1tYpR0J
8qxg6bYb3kGC8tBF8U5hKlPcX64ekRxSvZgmiCJzqXUUvL6/50LmapwAmFt58amS
aq6bdnstNeITHUwEnY6EewKM/ly+e3/vKenpxp4bobq5+joknTmSq4wxd2WsAz6u
hxrrsS2JSKyWpwcl9ckLuyHgHncTgES2NGkhM8kyNfN1IBeeN1ym31tj0s/Cb39i
uy3FzCVORfbmVfbhawsDJrcAnBZIRTTPvfKnkNpJAvE0FEZX+9KcRyc6LtUUYU9U
GQGCleEQy+mIUnVfwrT2D57AE46tw768EcD/Dwb6p4z80NnYWdq9FkaLwg/W80n1
j71fUg6VjuJwLesQLoB/rx4D40sNyZk+uk5SfXTVsMWr3v5YFH5/4BUYmqT6k0Kk
Q5I/xxoOYHR0FzNR4ZLP1uIiMy0O32d5laso08jhQpjrgPBdTmm6c9gLdGCMmHuO
PBhjS7b4gklT8jiPmpI79bsqGFaaHVFh7Lj88tVXxcJ8Wt/LZkoyuoDUnEb7iHGT
ICdZfJsCAwEAAaOByTCBxjAdBgNVHQ4EFgQUPbnKFNl6/GBnBxMpeNz6wq5nBIEw
HwYDVR0jBBgwFoAUAKkJa/7a6Jit2n159uP9g0Pyt60wEgYDVR0TAQH/BAgwBgEB
/wIBADAOBgNVHQ8BAf8EBAMCAYYwYAYDVR0gBFkwVzA3BglghkgBhv1sAgEwKjAo
BggrBgEFBQcCARYcaHR0cHM6Ly93d3cuZGlnaWNlcnQuY29tL0NQUzANBgsrBgEE
AYLsEQEBATANBgsrBgEEAYLsEQEBAjANBgkqhkiG9w0BAQwFAAOCAgEAdJgpXoMd
QCVgTTChQ5OuqWfL3Pa/CMoVQInM1QZKVP6Av5t6Z++9MRsFkZzL30meALko7yed
T9NAPDyZsHmtInpwWIzNkgWM03ZAGl2DMSuHwPDdhqwLzy8wlOZqfX0fJ93lqzgj
PYxS+96PYVJMxDM31q+caYB3aTY7ZYEzVfx8/MrgdssvOfyfhoNnJAw/xldKndVj
Rk/anO+bkcIv/xpYGEEm2rpC+SuV5G/YSjOFhVlMciR09zbfGN7g7M3e0aRnALFv
PwCU1mgTC7Q4hcmM8ltxLuxtneXxUxKVXxp5fCBL7MqW9sGjqSoUZiklE57mz59H
enDn3EhaP+iubd5s6F8y33M/RSgC18muXZScoRbF5B9qhY1jw7/pSNzLUFZo/iOh
dRDlLMPArceCo4Fljcrk5pDjQjPblC1ZGqtfZ3Z06G31EmVSulyLIq9K1Hobiibo
RI5A+Awl+oGvHbC+nHFCNSJ3xIwx4AlLVweW0xOLLyjNeppPvs3rvPKXqA72ONNf
Km/vcHVbsE5TdtXU1JdC1Jq7vQvrG/9QG7cqeHjCHJ6/mMgqvs5xjG+2/bsoQF0V
NcEgDFemeuIjFZP+Tmej8f3E/YKIWX7D1n1yu10/o9PIubxvxK1p7+seybu6yE8a
t9y7J/WQCj61Gsp5Q+6Bl+oY/0aElhIh+f8=
-----END CERTIFICATE-----
