Certificate:
    Data:
        Version: 3 (0x2)
        Serial Number: 18252460957402756208 (0xfd4dc488faad7470)
    Signature Algorithm: sha384WithRSAEncryption
        Issuer: C=US, ST=District of Columbia, L=Washington, O=Wireless Innovation Forum, OU=www.wirelessinnovation.org, CN=WInnForum RSA Root CA-1
        Validity
            Not Before: Aug  2 19:12:51 2016 GMT
            Not After : Jul 30 19:12:51 2031 GMT
        Subject: C=US, ST=District of Columbia, L=Washington, O=Wireless Innovation Forum, OU=www.wirelessinnovation.org, CN=WInnForum RSA Installer CA-1
        Subject Public Key Info:
            Public Key Algorithm: rsaEncryption
                Public-Key: (4096 bit)
                Modulus:
                    00:d2:52:05:07:2f:02:8b:a5:a7:b2:68:04:b4:15:
                    79:c1:28:a2:de:e0:5b:d3:1c:c6:5a:c2:d8:ef:fc:
                    09:7f:d2:cd:9c:65:ee:7f:3f:5a:cb:2c:31:c7:74:
                    95:05:4e:88:8d:96:97:80:09:c6:f9:1c:83:b5:bf:
                    f5:f0:b9:34:ba:1d:e5:5d:02:01:35:e3:18:fe:de:
                    d3:eb:dd:e5:ab:7c:8e:87:29:87:bb:05:8f:28:bf:
                    38:96:24:cd:c0:ff:64:0b:f8:9e:1e:2a:1d:6e:f0:
                    af:db:3e:ce:6d:70:f7:ce:58:c9:de:52:6c:e0:93:
                    4f:95:a5:81:f6:9e:38:d2:1e:32:62:7f:15:45:a8:
                    73:5c:2a:09:90:8f:c2:c0:30:9d:54:1d:52:e5:f1:
                    3a:89:c0:d5:47:c1:f5:78:4d:cb:9c:48:3c:89:8a:
                    15:b9:11:5e:c6:26:e9:95:39:85:61:7f:5e:c1:58:
                    f8:2b:a6:e8:d5:b9:e9:8e:04:d8:bf:6e:db:09:1c:
                    4f:cf:c7:d0:2e:54:c8:d1:7a:fb:46:95:d0:77:8b:
                    fd:96:9c:b1:29:dd:ee:69:50:43:d3:d6:46:9f:d3:
                    9f:d8:25:08:79:9c:fe:c3:1f:c3:76:b9:af:17:97:
                    64:58:9d:2f:b3:ce:60:05:29:04:74:63:db:51:53:
                    71:a3:16:a3:d6:1e:31:3e:28:d4:47:f6:40:e3:42:
                    5e:59:cc:d4:fc:28:0d:a3:c9:92:51:ea:34:7e:99:
                    33:52:70:00:9d:56:67:68:cf:9a:f3:b7:b5:bb:54:
                    38:11:c3:08:ad:bc:ff:4c:a7:34:19:72:24:80:b8:
                    93:d0:26:12:2e:63:40:8f:1a:59:05:93:a2:66:2c:
                    76:9d:13:f4:b1:5a:dc:7b:bb:47:d0:c0:aa:9d:4f:
                    f9:f0:5e:85:9d:43:5e:4c:a3:35:dc:00:2e:b6:0d:
                    47:ce:35:31:de:64:b1:22:92:ee:89:2a:c3:a4:7b:
                    b5:3a:c7:fe:54:1f:01:7e:20:b1:f3:31:b1:63:f9:
                    17:89:c9:aa:56:d3:ef:04:c3:1e:14:3c:b9:62:c7:
                    e9:3e:2b:15:46:be:c5:89:41:6b:3c:1b:02:ba:c3:
                    64:6f:a4:4a:71:98:c5:fd:90:db:ca:75:97:64:a6:
                    0a:b7:62:52:0f:2e:8f:e9:e8:f5:ad:2d:4c:5a:65:
                    6f:30:06:44:6e:d9:7d:6e:ba:88:a3:1b:05:37:a3:
                    8a:18:ae:61:99:1d:90:0e:e7:8f:9e:82:81:5a:1a:
                    68:11:d1:df:7e:6c:1c:9f:72:8d:6e:c6:f5:c8:46:
                    29:c5:57:02:d0:21:1f:b3:ba:4c:69:37:ea:a1:47:
                    98:eb:57
                Exponent: 65537 (0x10001)
        X509v3 extensions:
            X509v3 Subject Key Identifier: 
                47:EE:96:57:24:78:DC:69:51:4A:13:D1:D5:06:2C:C1:C4:B5:81:32
            X509v3 Authority Key Identifier: 
                keyid:02:DD:01:BF:A7:5F:CB:3E:D4:EC:63:C5:65:F6:BC:78:12:EB:23:ED

            X509v3 Basic Constraints: critical
                CA:TRUE, pathlen:0
            X509v3 Key Usage: critical
                Digital Signature, Certificate Sign, CRL Sign
            ROLE: 
                0...INSTALLER..CA
    Signature Algorithm: sha384WithRSAEncryption
         a0:3c:76:82:2b:af:bf:b5:e9:f1:e3:e2:1a:dd:92:c3:5c:53:
         ed:74:f5:9e:b5:44:11:c6:9f:dc:d4:ab:d8:6a:47:58:77:7a:
         17:b6:2d:ab:bc:27:f3:5a:23:2c:bb:a1:94:02:59:7f:0e:a1:
         6d:aa:59:30:a2:f8:ae:fa:2e:e4:08:3b:be:31:63:03:cc:0b:
         9e:a7:b0:3e:ac:a0:26:66:71:06:40:ec:7f:b7:d5:4b:79:77:
         6f:1f:8c:e6:41:e5:d4:6e:3d:bf:1c:7d:f9:0e:ef:d0:7b:53:
         e8:f7:e6:2c:6f:24:22:48:a3:2a:60:a6:32:8a:b8:54:6a:85:
         31:ef:eb:41:05:71:1d:d1:1a:91:1a:46:da:70:ac:d2:5a:61:
         ea:28:33:02:63:ef:40:15:2d:72:b3:4f:c3:74:64:ce:ec:f1:
         92:db:8c:68:7f:07:63:b2:3f:57:88:35:e9:14:06:6a:e1:f8:
         cf:6c:20:b9:d9:1e:e4:36:37:e6:f2:2c:43:aa:47:a1:ff:c0:
         95:80:5e:9e:24:6a:ea:4a:11:1d:69:93:1e:39:50:af:d3:65:
         cf:9b:26:66:32:69:92:a9:d6:e9:28:42:c3:2a:ef:24:bf:0e:
         fe:da:4a:39:31:92:df:46:3a:0d:eb:d2:e6:55:18:50:e1:48:
         a4:45:6e:21:31:3e:57:3d:5b:3f:8c:e6:f9:33:1b:b4:f2:e4:
         7e:d1:df:6a:39:0a:4e:ce:2b:30:09:1d:eb:11:59:6d:73:d1:
         3b:c2:1a:cf:33:32:37:f8:e9:57:39:eb:bd:69:ab:03:3f:10:
         17:90:cc:45:e8:4b:53:81:d3:d9:e3:41:9a:6b:3f:d8:0c:c2:
         cb:b1:4a:85:5d:4b:3f:a3:c6:4e:8d:49:80:fd:ad:9f:cb:7e:
         fe:44:61:d6:d5:f0:87:d3:fd:2f:83:97:ab:c3:6f:b3:0e:bb:
         43:6e:a1:9a:67:13:07:29:6c:91:24:7f:0b:d3:5c:d1:13:f0:
         58:c5:57:23:70:87:e7:3c:2b:5e:12:c2:84:ef:09:c2:4b:1a:
         c2:6f:1b:3a:a3:49:fc:9f:ae:8d:38:3f:a7:8c:fa:9f:1e:18:
         c3:38:49:9c:42:52:54:d1:4b:79:de:95:7d:8b:7f:22:50:75:
         80:29:96:6b:f4:de:4e:c0:88:ca:23:90:0a:91:4d:84:3b:23:
         93:2a:8e:90:76:ad:9e:f8:b3:ce:d2:56:78:a3:c7:db:c6:b5:
         56:63:c1:10:58:97:75:b2:5d:9f:07:0d:71:21:c4:4e:54:14:
         00:74:51:a2:25:18:6c:02:76:54:46:58:30:33:7f:b1:b6:76:
         dc:81:b1:26:3d:93:ba:a8
-----BEGIN CERTIFICATE-----
MIIGazCCBFOgAwIBAgIJAP1NxIj6rXRwMA0GCSqGSIb3DQEBDAUAMIGsMQswCQYD
VQQGEwJVUzEdMBsGA1UECAwURGlzdHJpY3Qgb2YgQ29sdW1iaWExEzARBgNVBAcM
Cldhc2hpbmd0b24xIjAgBgNVBAoMGVdpcmVsZXNzIElubm92YXRpb24gRm9ydW0x
IzAhBgNVBAsMGnd3dy53aXJlbGVzc2lubm92YXRpb24ub3JnMSAwHgYDVQQDDBdX
SW5uRm9ydW0gUlNBIFJvb3QgQ0EtMTAeFw0xNjA4MDIxOTEyNTFaFw0zMTA3MzAx
OTEyNTFaMIGxMQswCQYDVQQGEwJVUzEdMBsGA1UECAwURGlzdHJpY3Qgb2YgQ29s
dW1iaWExEzARBgNVBAcMCldhc2hpbmd0b24xIjAgBgNVBAoMGVdpcmVsZXNzIElu
bm92YXRpb24gRm9ydW0xIzAhBgNVBAsMGnd3dy53aXJlbGVzc2lubm92YXRpb24u
b3JnMSUwIwYDVQQDDBxXSW5uRm9ydW0gUlNBIEluc3RhbGxlciBDQS0xMIICIjAN
BgkqhkiG9w0BAQEFAAOCAg8AMIICCgKCAgEA0lIFBy8Ci6WnsmgEtBV5wSii3uBb
0xzGWsLY7/wJf9LNnGXufz9ayywxx3SVBU6IjZaXgAnG+RyDtb/18Lk0uh3lXQIB
NeMY/t7T693lq3yOhymHuwWPKL84liTNwP9kC/ieHiodbvCv2z7ObXD3zljJ3lJs
4JNPlaWB9p440h4yYn8VRahzXCoJkI/CwDCdVB1S5fE6icDVR8H1eE3LnEg8iYoV
uRFexibplTmFYX9ewVj4K6bo1bnpjgTYv27bCRxPz8fQLlTI0Xr7RpXQd4v9lpyx
Kd3uaVBD09ZGn9Of2CUIeZz+wx/DdrmvF5dkWJ0vs85gBSkEdGPbUVNxoxaj1h4x
PijUR/ZA40JeWczU/CgNo8mSUeo0fpkzUnAAnVZnaM+a87e1u1Q4EcMIrbz/TKc0
GXIkgLiT0CYSLmNAjxpZBZOiZix2nRP0sVrce7tH0MCqnU/58F6FnUNeTKM13AAu
tg1HzjUx3mSxIpLuiSrDpHu1Osf+VB8BfiCx8zGxY/kXicmqVtPvBMMeFDy5Ysfp
PisVRr7FiUFrPBsCusNkb6RKcZjF/ZDbynWXZKYKt2JSDy6P6ej1rS1MWmVvMAZE
btl9brqIoxsFN6OKGK5hmR2QDuePnoKBWhpoEdHffmwcn3KNbsb1yEYpxVcC0CEf
s7pMaTfqoUeY61cCAwEAAaOBiDCBhTAdBgNVHQ4EFgQUR+6WVyR43GlRShPR1QYs
wcS1gTIwHwYDVR0jBBgwFoAUAt0Bv6dfyz7U7GPFZfa8eBLrI+0wEgYDVR0TAQH/
BAgwBgEB/wIBADAOBgNVHQ8BAf8EBAMCAYYwHwYKKwYBBAGC7BEBAQQRMA8MCUlO
U1RBTExFUgwCQ0EwDQYJKoZIhvcNAQEMBQADggIBAKA8doIrr7+16fHj4hrdksNc
U+109Z61RBHGn9zUq9hqR1h3ehe2Lau8J/NaIyy7oZQCWX8OoW2qWTCi+K76LuQI
O74xYwPMC56nsD6soCZmcQZA7H+31Ut5d28fjOZB5dRuPb8cffkO79B7U+j35ixv
JCJIoypgpjKKuFRqhTHv60EFcR3RGpEaRtpwrNJaYeooMwJj70AVLXKzT8N0ZM7s
8ZLbjGh/B2OyP1eINekUBmrh+M9sILnZHuQ2N+byLEOqR6H/wJWAXp4kaupKER1p
kx45UK/TZc+bJmYyaZKp1ukoQsMq7yS/Dv7aSjkxkt9GOg3r0uZVGFDhSKRFbiEx
Plc9Wz+M5vkzG7Ty5H7R32o5Ck7OKzAJHesRWW1z0TvCGs8zMjf46Vc5671pqwM/
EBeQzEXoS1OB09njQZprP9gMwsuxSoVdSz+jxk6NSYD9rZ/Lfv5EYdbV8IfT/S+D
l6vDb7MOu0NuoZpnEwcpbJEkfwvTXNET8FjFVyNwh+c8K14SwoTvCcJLGsJvGzqj
Sfyfro04P6eM+p8eGMM4SZxCUlTRS3nelX2LfyJQdYAplmv03k7AiMojkAqRTYQ7
I5MqjpB2rZ74s87SVnijx9vGtVZjwRBYl3WyXZ8HDXEhxE5UFAB0UaIlGGwCdlRG
WDAzf7G2dtyBsSY9k7qo
-----END CERTIFICATE-----
