Certificate:
    Data:
        Version: 3 (0x2)
        Serial Number:
            ec:92:f2:f6:e5:ac:f1:65
        Signature Algorithm: sha384WithRSAEncryption
        Issuer: C=US, ST=District of Columbia, L=Washington, O=Wireless Innovation Forum, OU=www.wirelessinnovation.org, CN=WInnForum RSA Root CA-1
        Validity
            Not Before: Jun 30 16:37:57 2016 GMT
            Not After : Jun 27 16:37:57 2031 GMT
        Subject: C=US, ST=District of Columbia, L=Washington, O=Wireless Innovation Forum, OU=www.wirelessinnovation.org, CN=WInnForum RSA Operator CA-1
        Subject Public Key Info:
            Public Key Algorithm: rsaEncryption
            RSA Public Key: (4096 bit)
                Modulus (4096 bit):
                    00:db:13:5b:09:c0:67:e2:be:ca:3f:b7:b5:b6:e8:
                    d6:62:9e:44:4d:24:c9:af:fc:57:b9:0c:23:5c:de:
                    58:f1:3f:05:75:4e:9a:a0:d9:c0:06:a6:5e:45:03:
                    81:d6:8c:a3:a9:d1:b2:cb:c1:b5:4d:28:64:a1:f2:
                    42:38:ee:d4:26:96:e6:e5:95:1f:ff:8f:5d:16:06:
                    10:1a:2d:a2:49:b4:f5:fb:4c:3c:7f:2e:a6:61:0d:
                    d5:80:dc:ae:f6:1f:6d:2f:9d:c7:e8:85:b0:46:c3:
                    b9:15:44:f2:d8:05:b3:18:ff:62:88:a5:33:e4:c2:
                    fc:d1:c5:6b:91:b3:ae:6d:9f:cf:6e:a4:76:0b:c9:
                    d2:67:de:4f:36:22:b9:f4:cd:9e:99:89:03:23:4c:
                    bb:2e:ae:be:85:6a:97:f9:7c:bf:26:a5:87:f3:60:
                    f3:da:af:64:c6:b0:fa:f7:c4:3a:04:c7:ec:e7:68:
                    96:26:bb:3a:e4:94:f6:a7:b4:44:2f:d0:ae:03:a1:
                    02:f6:ac:4e:44:70:87:94:7f:9b:bf:a6:5a:b6:02:
                    d2:ab:a0:4b:bf:17:31:77:4c:d1:65:9f:1e:9f:d8:
                    f7:f7:7b:a7:60:d6:13:d7:8d:36:b2:06:0b:be:c4:
                    46:a8:e8:eb:68:cf:b6:2c:1e:61:ae:9b:58:90:e5:
                    26:82:05:73:aa:0e:3f:37:a1:24:2b:3e:fd:18:e9:
                    5c:ac:cb:43:b2:4f:47:35:66:0c:db:d6:01:0f:5f:
                    0f:bd:87:a1:f7:b1:f6:1d:3b:63:7e:e5:43:c7:ad:
                    3c:c7:b8:7f:f2:cd:c4:6e:5a:95:54:f5:50:5c:74:
                    b5:21:96:b7:65:52:d1:02:74:29:4b:34:12:d8:83:
                    a4:04:a7:ef:95:ac:5c:1c:51:ae:68:39:dc:ca:e1:
                    e9:c8:0b:49:ea:e1:6f:20:a2:94:85:c1:6c:3c:d4:
                    09:08:6a:62:c2:0d:dc:b4:71:6d:ad:04:75:53:f6:
                    d9:44:c0:df:dc:66:6a:27:76:27:1c:88:40:1f:b6:
                    be:e2:54:ce:77:de:04:39:75:9d:03:e9:4b:b1:0b:
                    1c:52:e5:10:b6:91:d8:4e:8f:e7:b4:d8:ec:5d:83:
                    57:82:7d:5d:91:f4:33:0d:74:11:79:1b:22:f7:83:
                    12:8e:3f:c4:d5:f7:15:c9:25:9d:19:80:78:95:c5:
                    8b:1a:42:e6:6a:89:97:94:a1:a4:dc:2b:69:9b:c6:
                    95:34:37:cd:04:26:3a:96:b6:eb:51:96:5a:8d:66:
                    e1:50:79:93:be:5e:13:40:ba:ff:be:d2:50:20:8f:
                    d7:b8:5a:74:0c:63:45:d0:ec:31:aa:27:f3:7d:65:
                    9f:39:c3
                Exponent: 65537 (0x10001)
        X509v3 extensions:
            X509v3 Subject Key Identifier: 
                F5:78:87:92:49:EF:74:24:8C:35:C1:67:5D:B5:2A:5D:69:73:6F:A3
            X509v3 Authority Key Identifier: 
                keyid:E2:DE:71:95:0A:CB:DF:09:EB:DC:03:02:1F:E3:B8:9A:6C:87:54:88

            X509v3 Basic Constraints: critical
                CA:TRUE, pathlen:0
            X509v3 Key Usage: critical
                Digital Signature, Certificate Sign, CRL Sign
            ROLE: 
                0...OPERATOR..CA
    Signature Algorithm: sha384WithRSAEncryption
        45:16:48:e0:f8:05:73:25:4a:f2:18:08:19:38:c3:bf:b2:e8:
        55:05:73:8d:19:24:d1:9f:e3:d7:6a:4c:5f:4f:30:d4:16:4e:
        a7:3a:80:0a:3b:b4:ef:8f:68:86:c1:9a:60:94:94:e8:95:f2:
        60:c7:90:b5:21:9b:13:80:e5:7c:6b:6c:58:d0:a9:d5:b9:46:
        fc:40:f5:f7:16:9f:1d:b8:fc:d7:f6:6f:34:db:9d:de:c1:9f:
        6e:66:4f:1b:2b:2b:5a:4e:c2:cf:c9:eb:61:96:16:75:ad:3f:
        2c:ef:26:ba:de:9a:fb:eb:e1:60:da:9c:e4:bb:82:8a:96:c1:
        ed:41:4f:97:68:5c:be:d0:88:f7:6e:5e:ad:07:3e:e7:16:1a:
        d4:01:71:40:49:62:30:ed:7f:5b:0f:02:b1:8d:fa:0f:12:86:
        4e:31:ac:f2:64:37:b2:d5:b6:f0:92:61:f3:11:a8:53:0b:f8:
        23:f5:53:ec:a5:ff:30:ea:ef:34:f7:35:0a:43:69:91:7e:d0:
        e3:05:47:35:6f:aa:3a:79:ed:0a:5d:da:bf:10:5a:ce:74:66:
        43:07:a5:17:57:b2:1c:42:e0:c0:02:68:ba:eb:5c:3a:34:b9:
        8c:b4:0d:37:a7:8e:c9:df:07:ee:d0:d0:7c:30:26:a6:a3:3d:
        bf:78:8e:57:a1:c3:4b:e6:c9:60:57:f3:f7:8f:74:9c:01:85:
        2f:dc:ef:ba:b1:5a:a5:70:fe:65:8b:29:e6:29:5b:1c:d4:14:
        9d:5c:02:22:01:c1:68:68:12:6c:6c:e8:ac:e4:cd:c7:84:02:
        9b:70:4e:72:85:7e:cf:21:a1:ec:4e:bc:29:65:08:f5:68:c2:
        87:c8:9c:77:cf:a4:5f:52:29:48:b0:2c:1c:f4:39:17:2b:f4:
        7a:10:a8:e6:7c:8e:79:b5:d8:9c:59:80:34:3a:38:9d:ba:2a:
        ed:13:bf:8a:57:85:98:a5:1f:91:a2:d0:4a:09:63:df:5c:01:
        80:1e:86:2e:c7:ec:6c:47:39:b4:1c:ad:4e:5b:1f:86:82:03:
        ce:4f:ff:77:08:84:c9:a5:56:3b:35:04:8c:15:ff:d2:cd:b7:
        8e:65:ce:1d:34:19:1a:25:41:23:85:d2:83:5b:fe:88:41:a2:
        b0:a1:7f:ba:fe:db:99:a6:4e:2f:d2:65:ae:37:5c:4d:6b:f5:
        f0:3a:a4:cf:ff:4a:c7:06:aa:09:21:ec:bc:b5:9d:ae:23:60:
        f9:68:c6:8e:6c:51:d8:4f:d8:66:20:c3:2c:e7:8b:65:a1:a0:
        3f:71:0e:de:76:fa:36:d3:54:5b:d2:a3:b2:91:28:25:54:9c:
        bb:96:dc:4d:23:0e:e3:07
-----BEGIN CERTIFICATE-----
MIIGaTCCBFGgAwIBAgIJAOyS8vblrPFlMA0GCSqGSIb3DQEBDAUAMIGsMQswCQYD
VQQGEwJVUzEdMBsGA1UECAwURGlzdHJpY3Qgb2YgQ29sdW1iaWExEzARBgNVBAcM
Cldhc2hpbmd0b24xIjAgBgNVBAoMGVdpcmVsZXNzIElubm92YXRpb24gRm9ydW0x
IzAhBgNVBAsMGnd3dy53aXJlbGVzc2lubm92YXRpb24ub3JnMSAwHgYDVQQDDBdX
SW5uRm9ydW0gUlNBIFJvb3QgQ0EtMTAeFw0xNjA2MzAxNjM3NTdaFw0zMTA2Mjcx
NjM3NTdaMIGwMQswCQYDVQQGEwJVUzEdMBsGA1UECAwURGlzdHJpY3Qgb2YgQ29s
dW1iaWExEzARBgNVBAcMCldhc2hpbmd0b24xIjAgBgNVBAoMGVdpcmVsZXNzIElu
bm92YXRpb24gRm9ydW0xIzAhBgNVBAsMGnd3dy53aXJlbGVzc2lubm92YXRpb24u
b3JnMSQwIgYDVQQDDBtXSW5uRm9ydW0gUlNBIE9wZXJhdG9yIENBLTEwggIiMA0G
CSqGSIb3DQEBAQUAA4ICDwAwggIKAoICAQDbE1sJwGfivso/t7W26NZinkRNJMmv
/Fe5DCNc3ljxPwV1Tpqg2cAGpl5FA4HWjKOp0bLLwbVNKGSh8kI47tQmlubllR//
j10WBhAaLaJJtPX7TDx/LqZhDdWA3K72H20vncfohbBGw7kVRPLYBbMY/2KIpTPk
wvzRxWuRs65tn89upHYLydJn3k82Irn0zZ6ZiQMjTLsurr6Fapf5fL8mpYfzYPPa
r2TGsPr3xDoEx+znaJYmuzrklPantEQv0K4DoQL2rE5EcIeUf5u/plq2AtKroEu/
FzF3TNFlnx6f2Pf3e6dg1hPXjTayBgu+xEao6Otoz7YsHmGum1iQ5SaCBXOqDj83
oSQrPv0Y6Vysy0OyT0c1Zgzb1gEPXw+9h6H3sfYdO2N+5UPHrTzHuH/yzcRuWpVU
9VBcdLUhlrdlUtECdClLNBLYg6QEp++VrFwcUa5oOdzK4enIC0nq4W8gopSFwWw8
1AkIamLCDdy0cW2tBHVT9tlEwN/cZmondicciEAftr7iVM533gQ5dZ0D6UuxCxxS
5RC2kdhOj+e02Oxdg1eCfV2R9DMNdBF5GyL3gxKOP8TV9xXJJZ0ZgHiVxYsaQuZq
iZeUoaTcK2mbxpU0N80EJjqWtutRllqNZuFQeZO+XhNAuv++0lAgj9e4WnQMY0XQ
7DGqJ/N9ZZ85wwIDAQABo4GHMIGEMB0GA1UdDgQWBBT1eIeSSe90JIw1wWddtSpd
aXNvozAfBgNVHSMEGDAWgBTi3nGVCsvfCevcAwIf47iabIdUiDASBgNVHRMBAf8E
CDAGAQH/AgEAMA4GA1UdDwEB/wQEAwIBhjAeBgorBgEEAYLsEQEBBBAwDgwIT1BF
UkFUT1IMAkNBMA0GCSqGSIb3DQEBDAUAA4ICAQBFFkjg+AVzJUryGAgZOMO/suhV
BXONGSTRn+PXakxfTzDUFk6nOoAKO7Tvj2iGwZpglJTolfJgx5C1IZsTgOV8a2xY
0KnVuUb8QPX3Fp8duPzX9m80253ewZ9uZk8bKytaTsLPyethlhZ1rT8s7ya63pr7
6+Fg2pzku4KKlsHtQU+XaFy+0Ij3bl6tBz7nFhrUAXFASWIw7X9bDwKxjfoPEoZO
MazyZDey1bbwkmHzEahTC/gj9VPspf8w6u809zUKQ2mRftDjBUc1b6o6ee0KXdq/
EFrOdGZDB6UXV7IcQuDAAmi661w6NLmMtA03p47J3wfu0NB8MCamoz2/eI5XocNL
5slgV/P3j3ScAYUv3O+6sVqlcP5liynmKVsc1BSdXAIiAcFoaBJsbOis5M3HhAKb
cE5yhX7PIaHsTrwpZQj1aMKHyJx3z6RfUilIsCwc9DkXK/R6EKjmfI55tdicWYA0
OjiduirtE7+KV4WYpR+RotBKCWPfXAGAHoYux+xsRzm0HK1OWx+GggPOT/93CITJ
pVY7NQSMFf/SzbeOZc4dNBkaJUEjhdKDW/6IQaKwoX+6/tuZpk4v0mWuN1xNa/Xw
OqTP/0rHBqoJIey8tZ2uI2D5aMaObFHYT9hmIMMs54tloaA/cQ7edvo201Rb0qOy
kSglVJy7ltxNIw7jBw==
-----END CERTIFICATE-----
