Certificate:
    Data:
        Version: 3 (0x2)
        Serial Number: 18252460957402756209 (0xfd4dc488faad7471)
    Signature Algorithm: sha384WithRSAEncryption
        Issuer: C=US, ST=District of Columbia, L=Washington, O=Wireless Innovation Forum, OU=www.wirelessinnovation.org, CN=WInnForum RSA Installer CA-1
        Validity
            Not Before: Aug  2 19:12:51 2016 GMT
            Not After : Oct 31 19:12:51 2019 GMT
        Subject: C=US, ST=District of Columbia, L=Washington, O=Wireless Innovation Forum, OU=www.wirelessinnovation.org, CN=Installer End-Entity Example
        Subject Public Key Info:
            Public Key Algorithm: rsaEncryption
                Public-Key: (2048 bit)
                Modulus:
                    00:cb:3c:00:da:69:da:12:82:09:9b:73:d8:40:dc:
                    b0:5c:f9:67:01:32:41:cc:94:0e:76:81:63:c8:b2:
                    22:5d:fe:cf:1b:e3:49:8b:8e:59:7a:32:ca:f3:90:
                    df:a3:bc:da:a4:2c:88:c2:9c:2d:2b:0e:17:44:1b:
                    5b:82:f0:8a:f3:6c:2f:90:42:0c:e4:1d:ef:08:db:
                    45:d6:40:8e:56:ac:76:c5:de:42:98:8a:2d:8c:92:
                    49:96:fd:ec:73:7b:5a:ac:35:03:6c:35:5b:b2:e1:
                    4b:37:3f:31:b5:5f:a0:da:7e:e0:99:bf:d9:27:fe:
                    85:5b:ce:e8:d8:77:a7:a0:1e:d8:9a:37:44:66:04:
                    ae:ec:ab:68:8d:cd:b4:d8:36:cc:b3:25:74:3e:9f:
                    21:1e:17:dc:46:45:52:27:36:1c:3c:60:2f:d6:37:
                    05:84:58:fb:39:bb:1d:64:15:d2:e8:e2:97:07:bd:
                    29:c3:9c:22:af:9c:91:4a:e0:05:a2:0c:c3:6c:3e:
                    10:20:0b:38:74:fb:d3:34:06:2e:f3:8e:f7:ec:04:
                    a4:d7:f6:ce:47:9e:38:b0:7e:d0:3e:9e:1a:05:83:
                    7b:c0:84:94:4b:3c:89:10:08:db:25:89:83:59:ad:
                    91:54:2f:fe:f9:f1:db:32:32:58:9e:49:4d:af:36:
                    18:5b
                Exponent: 65537 (0x10001)
        X509v3 extensions:
            X509v3 Subject Key Identifier: 
                61:68:43:D0:59:E2:49:48:28:A9:68:96:EC:48:ED:CF:19:A1:39:8B
            X509v3 Authority Key Identifier: 
                keyid:47:EE:96:57:24:78:DC:69:51:4A:13:D1:D5:06:2C:C1:C4:B5:81:32

            X509v3 Basic Constraints: 
                CA:FALSE
            X509v3 Key Usage: critical
                Digital Signature, Key Encipherment
            X509v3 Extended Key Usage: 
                TLS Web Server Authentication
            ROLE: 
                ..INSTALLER
    Signature Algorithm: sha384WithRSAEncryption
         9e:6b:b6:9f:79:4f:0e:b6:16:ca:9d:b4:57:fd:01:b5:79:ed:
         34:f7:02:46:b0:93:50:d0:55:aa:f7:ea:b2:a0:87:87:f1:c8:
         01:25:d6:fe:8a:4e:f0:88:a1:aa:97:b3:70:d3:99:91:8b:63:
         a6:f5:2b:9b:ee:da:fd:1d:fc:a6:30:53:63:77:c3:87:8f:70:
         62:e8:f3:66:96:00:ca:4a:23:93:d0:99:a8:4e:97:1c:34:be:
         0f:56:c9:d8:b4:32:65:24:b6:a3:32:cf:05:dc:e9:c9:a6:27:
         3a:27:4a:d5:02:b1:37:5e:29:f9:07:0c:b4:78:bd:88:e5:f3:
         7f:a1:67:01:85:c6:d3:0f:2b:44:fe:7f:12:9a:15:d7:40:2a:
         51:06:1d:c8:cc:4e:e9:69:a8:68:c1:c1:be:b1:c2:fc:f9:f7:
         f8:3c:91:62:a9:e6:ff:4c:aa:ae:eb:31:56:80:58:f1:c9:0f:
         c9:65:62:93:13:5e:4d:77:32:e4:c2:ad:83:ea:e2:b6:3b:0d:
         dc:87:13:8a:08:fc:3d:1b:c8:db:78:28:a6:90:e9:d9:01:07:
         b6:af:04:2d:af:f9:4b:4d:cf:c2:bf:f4:c5:e6:2d:74:e9:23:
         cc:04:78:12:b9:85:a6:17:33:92:d5:dd:f4:c2:4a:0a:49:5d:
         a5:a0:fa:7a:f7:bb:94:bc:8d:95:bc:59:0a:ec:6f:3b:85:ff:
         03:0b:72:d8:e0:e2:bf:43:dc:8d:45:08:9c:b9:94:8e:83:34:
         d5:1f:2b:52:a9:48:07:98:84:97:cb:83:28:08:b5:16:9a:8b:
         36:3f:61:e8:8c:2a:91:b1:43:7b:a7:76:3d:38:50:f7:7d:bf:
         75:ea:68:44:9c:69:d8:e2:51:13:90:95:5b:8a:05:ab:06:db:
         85:4d:13:77:f8:3e:a9:fd:64:db:f8:b2:7b:b2:36:e3:bb:d8:
         76:d5:ce:cf:14:92:72:ce:ea:49:fe:5a:69:a6:fb:55:e8:e4:
         5b:7f:51:c0:74:29:2f:3f:29:67:4d:81:49:0b:b3:55:67:1f:
         a1:b1:cf:57:4b:4c:47:0a:6e:c7:2f:3f:95:8e:f6:bd:2c:88:
         2c:0c:72:0c:5d:bd:56:61:03:e2:e2:3f:98:24:0d:fa:c2:11:
         1e:b7:17:49:3b:1c:36:68:53:ef:2b:89:c0:ce:0b:be:f1:50:
         ef:22:82:9a:3a:b7:8f:76:20:5d:3e:9c:e4:46:5b:8c:f4:13:
         9c:9a:e6:f1:bb:5c:fd:10:af:49:d7:2b:1b:0c:40:9d:bf:49:
         96:63:30:29:d5:09:c1:f3:08:6b:6c:c1:fb:bb:21:48:69:9f:
         55:24:f9:f7:02:63:c4:14
-----BEGIN CERTIFICATE-----
MIIFdjCCA16gAwIBAgIJAP1NxIj6rXRxMA0GCSqGSIb3DQEBDAUAMIGxMQswCQYD
VQQGEwJVUzEdMBsGA1UECAwURGlzdHJpY3Qgb2YgQ29sdW1iaWExEzARBgNVBAcM
Cldhc2hpbmd0b24xIjAgBgNVBAoMGVdpcmVsZXNzIElubm92YXRpb24gRm9ydW0x
IzAhBgNVBAsMGnd3dy53aXJlbGVzc2lubm92YXRpb24ub3JnMSUwIwYDVQQDDBxX
SW5uRm9ydW0gUlNBIEluc3RhbGxlciBDQS0xMB4XDTE2MDgwMjE5MTI1MVoXDTE5
MTAzMTE5MTI1MVowgbExCzAJBgNVBAYTAlVTMR0wGwYDVQQIDBREaXN0cmljdCBv
ZiBDb2x1bWJpYTETMBEGA1UEBwwKV2FzaGluZ3RvbjEiMCAGA1UECgwZV2lyZWxl
c3MgSW5ub3ZhdGlvbiBGb3J1bTEjMCEGA1UECwwad3d3LndpcmVsZXNzaW5ub3Zh
dGlvbi5vcmcxJTAjBgNVBAMMHEluc3RhbGxlciBFbmQtRW50aXR5IEV4YW1wbGUw
ggEiMA0GCSqGSIb3DQEBAQUAA4IBDwAwggEKAoIBAQDLPADaadoSggmbc9hA3LBc
+WcBMkHMlA52gWPIsiJd/s8b40mLjll6MsrzkN+jvNqkLIjCnC0rDhdEG1uC8Irz
bC+QQgzkHe8I20XWQI5WrHbF3kKYii2MkkmW/exze1qsNQNsNVuy4Us3PzG1X6Da
fuCZv9kn/oVbzujYd6egHtiaN0RmBK7sq2iNzbTYNsyzJXQ+nyEeF9xGRVInNhw8
YC/WNwWEWPs5ux1kFdLo4pcHvSnDnCKvnJFK4AWiDMNsPhAgCzh0+9M0Bi7zjvfs
BKTX9s5HnjiwftA+nhoFg3vAhJRLPIkQCNsliYNZrZFUL/758dsyMlieSU2vNhhb
AgMBAAGjgY4wgYswHQYDVR0OBBYEFGFoQ9BZ4klIKKloluxI7c8ZoTmLMB8GA1Ud
IwQYMBaAFEfullckeNxpUUoT0dUGLMHEtYEyMAkGA1UdEwQCMAAwDgYDVR0PAQH/
BAQDAgWgMBMGA1UdJQQMMAoGCCsGAQUFBwMBMBkGCisGAQQBguwRAQEECwwJSU5T
VEFMTEVSMA0GCSqGSIb3DQEBDAUAA4ICAQCea7afeU8OthbKnbRX/QG1ee009wJG
sJNQ0FWq9+qyoIeH8cgBJdb+ik7wiKGql7Nw05mRi2Om9Sub7tr9HfymMFNjd8OH
j3Bi6PNmlgDKSiOT0JmoTpccNL4PVsnYtDJlJLajMs8F3OnJpic6J0rVArE3Xin5
Bwy0eL2I5fN/oWcBhcbTDytE/n8SmhXXQCpRBh3IzE7paahowcG+scL8+ff4PJFi
qeb/TKqu6zFWgFjxyQ/JZWKTE15NdzLkwq2D6uK2Ow3chxOKCPw9G8jbeCimkOnZ
AQe2rwQtr/lLTc/Cv/TF5i106SPMBHgSuYWmFzOS1d30wkoKSV2loPp697uUvI2V
vFkK7G87hf8DC3LY4OK/Q9yNRQicuZSOgzTVHytSqUgHmISXy4MoCLUWmos2P2Ho
jCqRsUN7p3Y9OFD3fb916mhEnGnY4lETkJVbigWrBtuFTRN3+D6p/WTb+LJ7sjbj
u9h21c7PFJJyzupJ/lpppvtV6ORbf1HAdCkvPylnTYFJC7NVZx+hsc9XS0xHCm7H
Lz+Vjva9LIgsDHIMXb1WYQPi4j+YJA36whEetxdJOxw2aFPvK4nAzgu+8VDvIoKa
OrePdiBdPpzkRluM9BOcmubxu1z9EK9J1ysbDECdv0mWYzAp1QnB8whrbMH7uyFI
aZ9VJPn3AmPEFA==
-----END CERTIFICATE-----
