Certificate:
    Data:
        Version: 3 (0x2)
        Serial Number: 16534221079554972644 (0xe5755a7844a65be4)
    Signature Algorithm: sha384WithRSAEncryption
        Issuer: C=US, ST=District of Columbia, L=Washington, O=Wireless Innovation Forum, OU=www.wirelessinnovation.org, CN=WInnForum RSA CBSD CA-1
        Validity
            Not Before: Sep 15 02:56:29 2017 GMT
            Not After : Dec 13 02:56:29 2020 GMT
        Subject: C=US, ST=District of Columbia, L=Washington, O=Wireless Innovation Forum, OU=www.wirelessinnovation.org, CN=CBSD End-Entity Example
        Subject Public Key Info:
            Public Key Algorithm: rsaEncryption
                Public-Key: (2048 bit)
                Modulus:
                    00:e1:fa:90:02:ba:3b:f8:06:ed:59:69:12:c8:b7:
                    fd:a1:05:e9:f5:fb:fd:d0:d6:81:93:01:f4:f5:51:
                    b4:cb:5c:e9:a4:6a:61:a8:4a:17:19:a9:05:9b:be:
                    39:68:a8:9b:83:08:34:52:7d:1e:25:61:14:31:5f:
                    72:7a:8f:ee:00:51:d4:b2:41:e2:0e:b4:19:99:ba:
                    53:97:45:b8:16:17:40:08:46:bd:ee:17:52:b2:ff:
                    77:1a:40:5c:28:2e:14:48:24:8f:25:c2:a9:23:7e:
                    d7:93:cc:32:91:f9:62:db:4f:47:42:69:db:07:79:
                    95:f1:39:df:a4:34:09:ba:41:53:13:0e:68:ad:0b:
                    4c:82:90:cf:7e:83:50:d2:c0:09:84:a3:1c:b5:eb:
                    6a:76:0b:c5:dd:1d:e6:74:d4:32:ae:4c:d0:9e:ed:
                    3e:56:13:1a:9e:23:d2:5f:e8:cc:ee:52:64:49:5c:
                    cd:a4:ac:36:c6:0b:35:57:71:85:8f:b2:53:cc:09:
                    2f:23:84:33:e5:64:8a:56:3c:39:ea:3c:16:33:3f:
                    6d:89:89:89:47:44:c9:24:0e:71:41:fe:ab:e4:68:
                    3c:f0:b1:df:7b:bc:3b:82:04:80:fa:97:86:99:17:
                    9f:e6:1a:5d:40:7d:1f:af:2b:8f:3a:0a:48:49:31:
                    32:0b
                Exponent: 65537 (0x10001)
        X509v3 extensions:
            X509v3 Subject Key Identifier: 
                28:F8:64:C5:9B:6F:5D:C1:7F:82:D3:E4:A3:00:54:24:2D:A4:F7:79
            X509v3 Authority Key Identifier: 
                keyid:3A:DE:53:D0:FE:E3:D3:3B:89:63:DB:95:56:E6:96:D8:6B:A6:3D:CC

            X509v3 Basic Constraints: 
                CA:FALSE
            X509v3 Key Usage: critical
                Digital Signature, Key Encipherment
            X509v3 Extended Key Usage: 
                TLS Web Server Authentication
            X509v3 Certificate Policies: 
                Policy: 2.16.840.1.114412.2.1
                  CPS: https://www.digicert.com/CPS
                Policy: ROLE_CBSD

            TEST: critical
                ..
    Signature Algorithm: sha384WithRSAEncryption
         72:43:16:29:4a:99:17:7c:1a:2c:ab:3f:09:af:4e:14:52:53:
         66:7c:5d:4d:7d:dc:21:d0:98:d3:cd:f3:53:42:a8:0d:2c:6c:
         22:02:4a:0f:a0:a1:8b:55:b9:85:1e:97:ab:16:36:6e:26:d7:
         e6:44:d3:61:76:10:83:fd:34:67:12:c3:68:ab:ce:0c:8a:6f:
         9d:e6:cd:5f:fa:77:9f:77:94:a0:ea:dc:14:bf:69:41:26:be:
         14:bd:0e:90:d0:b6:64:ff:2b:40:2b:f5:03:e2:b9:ae:1d:f6:
         90:65:cd:b3:12:e6:83:ae:2c:c8:63:ab:c2:60:1e:77:9f:64:
         06:85:21:d3:e3:c2:e2:70:5a:d3:27:28:96:ab:99:d8:fd:d6:
         bc:80:e6:fe:a0:54:ca:ef:88:dc:c5:e4:65:d4:1d:76:e6:5d:
         84:0f:fc:86:c6:31:71:68:19:cd:a2:92:96:39:d2:50:e2:27:
         89:a2:f2:be:cd:47:0a:8a:79:86:25:b6:8a:f5:99:55:9e:8e:
         23:d7:f1:ad:29:ef:a7:a5:e5:cd:24:31:df:66:c5:3d:7e:81:
         e9:af:91:4d:3c:a4:99:b4:ed:0d:f4:a6:02:32:ac:ae:c5:42:
         21:4d:89:14:46:56:3c:aa:aa:c9:9d:63:23:6e:9a:2f:88:bd:
         05:7d:39:a5:87:94:73:d9:22:e4:c9:d3:21:3f:27:ec:50:e0:
         1d:4c:c5:25:a6:30:10:58:a9:62:92:b1:fa:2b:60:43:cd:93:
         90:10:31:39:c6:a3:7d:fb:22:71:ea:ea:7b:ca:69:9c:55:7c:
         21:fe:35:30:1f:30:a8:5e:d8:a3:47:75:b6:c6:3f:e2:a9:97:
         65:31:76:72:f2:10:bc:a2:92:79:f7:41:eb:58:1c:10:42:00:
         73:c4:3a:10:9a:f5:9a:a8:68:55:c6:64:4d:70:07:b2:0d:cf:
         7b:fc:76:e6:9f:37:4d:b2:a3:e1:10:65:e4:dd:22:72:d7:84:
         14:70:cd:ac:2a:40:04:0d:2f:d3:77:9c:de:63:b4:41:ad:f0:
         85:a9:6b:a6:0a:95:71:9e:93:b3:58:d3:6d:61:d6:3c:f2:aa:
         04:bc:71:e8:7a:e6:0d:43:c0:d8:1d:32:69:c0:27:3d:8d:06:
         4b:ab:34:d8:9d:f2:ff:e5:32:32:0f:8b:94:a9:c9:0e:2a:1c:
         70:9e:85:87:e7:49:d5:87:43:79:38:de:9b:91:52:2a:46:b8:
         ee:d9:e4:f8:dc:68:e2:e3:d6:6e:b1:c2:0f:4d:48:fc:46:28:
         6b:c4:63:aa:19:9d:af:ad:af:34:02:5d:78:bd:e2:37:fb:c3:
         7c:d0:35:9f:38:fc:4b:df
-----BEGIN CERTIFICATE-----
MIIFujCCA6KgAwIBAgIJAOV1WnhEplvkMA0GCSqGSIb3DQEBDAUAMIGsMQswCQYD
VQQGEwJVUzEdMBsGA1UECAwURGlzdHJpY3Qgb2YgQ29sdW1iaWExEzARBgNVBAcM
Cldhc2hpbmd0b24xIjAgBgNVBAoMGVdpcmVsZXNzIElubm92YXRpb24gRm9ydW0x
IzAhBgNVBAsMGnd3dy53aXJlbGVzc2lubm92YXRpb24ub3JnMSAwHgYDVQQDDBdX
SW5uRm9ydW0gUlNBIENCU0QgQ0EtMTAeFw0xNzA5MTUwMjU2MjlaFw0yMDEyMTMw
MjU2MjlaMIGsMQswCQYDVQQGEwJVUzEdMBsGA1UECAwURGlzdHJpY3Qgb2YgQ29s
dW1iaWExEzARBgNVBAcMCldhc2hpbmd0b24xIjAgBgNVBAoMGVdpcmVsZXNzIElu
bm92YXRpb24gRm9ydW0xIzAhBgNVBAsMGnd3dy53aXJlbGVzc2lubm92YXRpb24u
b3JnMSAwHgYDVQQDDBdDQlNEIEVuZC1FbnRpdHkgRXhhbXBsZTCCASIwDQYJKoZI
hvcNAQEBBQADggEPADCCAQoCggEBAOH6kAK6O/gG7VlpEsi3/aEF6fX7/dDWgZMB
9PVRtMtc6aRqYahKFxmpBZu+OWiom4MINFJ9HiVhFDFfcnqP7gBR1LJB4g60GZm6
U5dFuBYXQAhGve4XUrL/dxpAXCguFEgkjyXCqSN+15PMMpH5YttPR0Jp2wd5lfE5
36Q0CbpBUxMOaK0LTIKQz36DUNLACYSjHLXranYLxd0d5nTUMq5M0J7tPlYTGp4j
0l/ozO5SZElczaSsNsYLNVdxhY+yU8wJLyOEM+VkilY8Oeo8FjM/bYmJiUdEySQO
cUH+q+RoPPCx33u8O4IEgPqXhpkXn+YaXUB9H68rjzoKSEkxMgsCAwEAAaOB3DCB
2TAdBgNVHQ4EFgQUKPhkxZtvXcF/gtPkowBUJC2k93kwHwYDVR0jBBgwFoAUOt5T
0P7j0zuJY9uVVuaW2GumPcwwCQYDVR0TBAIwADAOBgNVHQ8BAf8EBAMCBaAwEwYD
VR0lBAwwCgYIKwYBBQUHAwEwUQYDVR0gBEowSDA3BglghkgBhv1sAgEwKjAoBggr
BgEFBQcCARYcaHR0cHM6Ly93d3cuZGlnaWNlcnQuY29tL0NQUzANBgsrBgEEAYLs
EQEBBDAUBgsrBgEEAYLsEQGHZwEB/wQCBQAwDQYJKoZIhvcNAQEMBQADggIBAHJD
FilKmRd8GiyrPwmvThRSU2Z8XU193CHQmNPN81NCqA0sbCICSg+goYtVuYUel6sW
Nm4m1+ZE02F2EIP9NGcSw2irzgyKb53mzV/6d593lKDq3BS/aUEmvhS9DpDQtmT/
K0Ar9QPiua4d9pBlzbMS5oOuLMhjq8JgHnefZAaFIdPjwuJwWtMnKJarmdj91ryA
5v6gVMrviNzF5GXUHXbmXYQP/IbGMXFoGc2ikpY50lDiJ4mi8r7NRwqKeYYltor1
mVWejiPX8a0p76el5c0kMd9mxT1+gemvkU08pJm07Q30pgIyrK7FQiFNiRRGVjyq
qsmdYyNumi+IvQV9OaWHlHPZIuTJ0yE/J+xQ4B1MxSWmMBBYqWKSsforYEPNk5AQ
MTnGo337InHq6nvKaZxVfCH+NTAfMKhe2KNHdbbGP+Kpl2UxdnLyELyiknn3QetY
HBBCAHPEOhCa9ZqoaFXGZE1wB7INz3v8duafN02yo+EQZeTdInLXhBRwzawqQAQN
L9N3nN5jtEGt8IWpa6YKlXGek7NY021h1jzyqgS8ceh65g1DwNgdMmnAJz2NBkur
NNid8v/lMjIPi5SpyQ4qHHCehYfnSdWHQ3k43puRUipGuO7Z5PjcaOLj1m6xwg9N
SPxGKGvEY6oZna+trzQCXXi94jf7w3zQNZ84/Evf
-----END CERTIFICATE-----
