Certificate:
    Data:
        Version: 3 (0x2)
        Serial Number: 16534221079554972638 (0xe5755a7844a65bde)
    Signature Algorithm: sha384WithRSAEncryption
        Issuer: C=US, ST=District of Columbia, L=Washington, O=Wireless Innovation Forum, OU=www.wirelessinnovation.org, CN=WInnForum RSA SAS CA-1
        Validity
            Not Before: Sep 15 02:56:22 2017 GMT
            Not After : Dec 13 02:56:22 2020 GMT
        Subject: C=US, ST=District of Columbia, L=Washington, O=Wireless Innovation Forum, OU=www.wirelessinnovation.org, CN=SAS End-Entity Example
        Subject Public Key Info:
            Public Key Algorithm: rsaEncryption
                Public-Key: (2048 bit)
                Modulus:
                    00:b5:8f:2c:71:bc:f8:ea:63:71:4f:9b:d4:10:1f:
                    da:6c:20:a7:26:da:4a:cb:e6:e2:38:7f:70:ba:99:
                    fa:0e:19:6d:ca:51:6c:e5:3d:7a:94:14:6e:96:8d:
                    e0:d5:c6:f6:05:2a:9f:fb:8e:66:44:62:6f:aa:c0:
                    43:73:42:9e:98:ec:87:8d:54:c7:ff:f5:66:d7:51:
                    2b:73:cd:19:a4:4d:97:a5:37:5c:d8:02:6d:33:9a:
                    cd:3e:b2:f0:14:dd:ae:8b:c2:c3:73:d5:0d:11:2b:
                    37:47:1c:7e:f2:da:1a:68:54:ef:78:cd:85:a7:f6:
                    e5:29:24:fd:8b:f7:74:78:6d:ca:a4:ea:d5:41:02:
                    d6:d2:d7:f9:43:e0:a1:c3:dd:10:81:13:a1:a1:f0:
                    34:3e:ba:a6:98:da:8d:3b:71:f9:9d:22:78:1f:38:
                    ec:dc:4c:67:0f:28:da:fc:22:8b:87:15:a5:32:bc:
                    6c:13:c9:a1:eb:44:fc:3a:18:e8:8c:5e:e9:0f:5c:
                    6f:8e:20:23:a7:3f:6e:28:53:3c:0d:ae:f8:8e:d0:
                    e1:5b:05:64:28:b6:9b:f3:7e:3c:ae:10:03:52:90:
                    b1:3a:a7:0e:a1:73:dc:dc:18:04:09:55:a3:ad:bf:
                    1c:81:34:dc:0c:bd:12:e5:f2:b2:93:3b:3d:ae:60:
                    96:45
                Exponent: 65537 (0x10001)
        X509v3 extensions:
            X509v3 Subject Key Identifier: 
                55:69:14:69:96:D4:E9:9B:D6:26:5C:7A:72:EF:4D:FC:35:D6:87:AA
            X509v3 Authority Key Identifier: 
                keyid:3D:B9:CA:14:D9:7A:FC:60:67:07:13:29:78:DC:FA:C2:AE:67:04:81

            X509v3 Basic Constraints: 
                CA:FALSE
            X509v3 Key Usage: critical
                Digital Signature
            X509v3 Extended Key Usage: 
                TLS Web Server Authentication
            X509v3 Certificate Policies: 
                Policy: 2.16.840.1.114412.2.1
                  CPS: https://www.digicert.com/CPS
                Policy: ROLE_SAS

            TEST: critical
                ..
    Signature Algorithm: sha384WithRSAEncryption
         96:aa:a9:a7:2f:9b:a0:0c:9e:15:0d:73:32:26:75:d0:9b:8d:
         27:6c:49:1f:3c:a1:2c:97:53:6f:e8:37:d3:f5:50:6a:67:08:
         2f:2b:26:73:52:22:f9:41:6a:61:71:c8:92:b1:39:7b:7d:d1:
         fe:81:32:78:c1:11:ba:01:2d:e3:b6:a9:2b:20:18:51:c6:ce:
         34:c5:c5:c4:e9:91:6e:ca:fd:3b:84:50:0a:73:ef:6f:d2:00:
         96:6b:ae:8d:b2:29:1f:c8:bc:05:c9:23:08:bd:5c:61:29:46:
         87:89:45:c1:1e:29:ee:3e:a2:ac:9c:3d:fa:57:16:5b:42:ba:
         5b:92:1e:b5:6d:07:c0:f9:af:79:02:44:c9:9c:d2:0f:d6:3b:
         08:a8:fd:ed:33:d9:8f:86:d9:62:6a:b2:00:9e:f9:5b:6f:2a:
         ce:4b:71:9a:87:89:fb:6b:06:ec:a0:6e:e4:59:a4:5a:34:cf:
         6e:8c:3d:a6:d0:08:16:0f:72:5f:ab:4b:03:0d:c3:8f:73:d3:
         14:1d:1e:a2:90:d2:14:a1:45:66:f1:30:d6:ec:d3:f4:6a:a0:
         b8:7b:00:85:f0:7e:a6:d9:eb:8d:1e:22:90:e5:2d:b5:41:f7:
         2a:b8:54:4e:ca:d3:9f:6b:75:16:0c:17:08:72:45:4d:5c:d4:
         1c:23:02:f0:20:95:2a:74:66:be:bc:32:6f:17:32:59:d6:7c:
         fa:01:98:e7:da:79:78:dd:40:a0:10:ce:c3:15:dc:f0:5a:95:
         53:b4:bb:b7:f8:6a:6a:3d:82:0d:67:e3:fc:d0:cb:2c:a9:e8:
         d1:1b:8e:80:14:41:a4:4b:3d:ec:85:08:3f:d2:0a:4f:9b:76:
         bc:4a:a0:57:5c:67:74:dd:04:79:80:e7:28:0b:1a:87:55:54:
         cc:7f:81:7c:9b:3e:8e:ae:f2:7e:37:d7:9b:a9:9b:0f:0a:ce:
         e6:0f:90:42:e8:ad:34:c8:f1:83:2e:7e:90:cf:02:2e:18:bd:
         71:50:da:44:a3:44:fb:44:e9:c4:20:9b:c0:b7:96:8b:5f:dc:
         8d:c3:98:b3:1e:de:4a:4e:89:d7:29:63:06:e2:26:c0:18:cb:
         89:67:09:f9:91:b3:97:7c:8b:90:ee:90:db:0e:66:67:71:ec:
         ae:4b:66:09:b1:d0:93:77:fc:ff:60:f5:f9:fe:c9:d1:51:41:
         88:2f:d1:c7:c1:7e:42:54:f0:fe:c5:6d:e6:ee:c1:dd:4e:74:
         4b:f0:ef:7e:33:96:c5:56:8c:7e:1e:e6:a3:9f:32:d6:08:cf:
         7c:78:92:47:d2:8b:5e:e0:a0:ec:4a:ee:d9:88:0f:ad:0a:2c:
         d6:25:85:24:13:23:b3:c4
-----BEGIN CERTIFICATE-----
MIIFuDCCA6CgAwIBAgIJAOV1WnhEplveMA0GCSqGSIb3DQEBDAUAMIGrMQswCQYD
VQQGEwJVUzEdMBsGA1UECAwURGlzdHJpY3Qgb2YgQ29sdW1iaWExEzARBgNVBAcM
Cldhc2hpbmd0b24xIjAgBgNVBAoMGVdpcmVsZXNzIElubm92YXRpb24gRm9ydW0x
IzAhBgNVBAsMGnd3dy53aXJlbGVzc2lubm92YXRpb24ub3JnMR8wHQYDVQQDDBZX
SW5uRm9ydW0gUlNBIFNBUyBDQS0xMB4XDTE3MDkxNTAyNTYyMloXDTIwMTIxMzAy
NTYyMlowgasxCzAJBgNVBAYTAlVTMR0wGwYDVQQIDBREaXN0cmljdCBvZiBDb2x1
bWJpYTETMBEGA1UEBwwKV2FzaGluZ3RvbjEiMCAGA1UECgwZV2lyZWxlc3MgSW5u
b3ZhdGlvbiBGb3J1bTEjMCEGA1UECwwad3d3LndpcmVsZXNzaW5ub3ZhdGlvbi5v
cmcxHzAdBgNVBAMMFlNBUyBFbmQtRW50aXR5IEV4YW1wbGUwggEiMA0GCSqGSIb3
DQEBAQUAA4IBDwAwggEKAoIBAQC1jyxxvPjqY3FPm9QQH9psIKcm2krL5uI4f3C6
mfoOGW3KUWzlPXqUFG6WjeDVxvYFKp/7jmZEYm+qwENzQp6Y7IeNVMf/9WbXUStz
zRmkTZelN1zYAm0zms0+svAU3a6LwsNz1Q0RKzdHHH7y2hpoVO94zYWn9uUpJP2L
93R4bcqk6tVBAtbS1/lD4KHD3RCBE6Gh8DQ+uqaY2o07cfmdIngfOOzcTGcPKNr8
IouHFaUyvGwTyaHrRPw6GOiMXukPXG+OICOnP24oUzwNrviO0OFbBWQotpvzfjyu
EANSkLE6pw6hc9zcGAQJVaOtvxyBNNwMvRLl8rKTOz2uYJZFAgMBAAGjgdwwgdkw
HQYDVR0OBBYEFFVpFGmW1Omb1iZcenLvTfw11oeqMB8GA1UdIwQYMBaAFD25yhTZ
evxgZwcTKXjc+sKuZwSBMAkGA1UdEwQCMAAwDgYDVR0PAQH/BAQDAgeAMBMGA1Ud
JQQMMAoGCCsGAQUFBwMBMFEGA1UdIARKMEgwNwYJYIZIAYb9bAIBMCowKAYIKwYB
BQUHAgEWHGh0dHBzOi8vd3d3LmRpZ2ljZXJ0LmNvbS9DUFMwDQYLKwYBBAGC7BEB
AQIwFAYLKwYBBAGC7BEBh2cBAf8EAgUAMA0GCSqGSIb3DQEBDAUAA4ICAQCWqqmn
L5ugDJ4VDXMyJnXQm40nbEkfPKEsl1Nv6DfT9VBqZwgvKyZzUiL5QWphcciSsTl7
fdH+gTJ4wRG6AS3jtqkrIBhRxs40xcXE6ZFuyv07hFAKc+9v0gCWa66NsikfyLwF
ySMIvVxhKUaHiUXBHinuPqKsnD36VxZbQrpbkh61bQfA+a95AkTJnNIP1jsIqP3t
M9mPhtliarIAnvlbbyrOS3Gah4n7awbsoG7kWaRaNM9ujD2m0AgWD3Jfq0sDDcOP
c9MUHR6ikNIUoUVm8TDW7NP0aqC4ewCF8H6m2euNHiKQ5S21QfcquFROytOfa3UW
DBcIckVNXNQcIwLwIJUqdGa+vDJvFzJZ1nz6AZjn2nl43UCgEM7DFdzwWpVTtLu3
+GpqPYINZ+P80MssqejRG46AFEGkSz3shQg/0gpPm3a8SqBXXGd03QR5gOcoCxqH
VVTMf4F8mz6OrvJ+N9ebqZsPCs7mD5BC6K00yPGDLn6QzwIuGL1xUNpEo0T7ROnE
IJvAt5aLX9yNw5izHt5KTonXKWMG4ibAGMuJZwn5kbOXfIuQ7pDbDmZnceyuS2YJ
sdCTd/z/YPX5/snRUUGIL9HHwX5CVPD+xW3m7sHdTnRL8O9+M5bFVox+HuajnzLW
CM98eJJH0ote4KDsSu7ZiA+tCizWJYUkEyOzxA==
-----END CERTIFICATE-----
