Certificate:
    Data:
        Version: 3 (0x2)
        Serial Number: 18252460957402756207 (0xfd4dc488faad746f)
    Signature Algorithm: sha384WithRSAEncryption
        Issuer: C=US, ST=District of Columbia, L=Washington, O=Wireless Innovation Forum, OU=www.wirelessinnovation.org, CN=WInnForum RSA Operator CA-1
        Validity
            Not Before: Aug  2 19:12:50 2016 GMT
            Not After : Oct 31 19:12:50 2019 GMT
        Subject: C=US, ST=District of Columbia, L=Washington, O=Wireless Innovation Forum, OU=www.wirelessinnovation.org, CN=Operator End-Entity Example
        Subject Public Key Info:
            Public Key Algorithm: rsaEncryption
                Public-Key: (2048 bit)
                Modulus:
                    00:a0:50:56:7f:54:02:c6:a7:ec:b9:1d:21:0d:3a:
                    16:5a:bc:a2:67:64:8f:f8:ba:1d:14:32:81:3e:14:
                    0d:87:14:ce:15:87:1e:8c:a1:12:ba:88:cd:5c:de:
                    c0:46:4c:22:60:f2:4c:bf:ee:f2:bc:78:9a:4c:2d:
                    6f:8d:7c:63:52:2f:88:18:3c:65:af:c3:f8:c9:a0:
                    4b:49:ec:0c:38:4f:f7:b2:1c:4a:99:13:5e:4c:25:
                    a9:3d:a7:8d:bc:b1:cc:3b:e7:48:82:23:ba:65:a5:
                    12:02:fc:9d:6d:e2:d7:74:80:14:49:f9:31:d5:28:
                    fe:ac:cc:b8:a7:5a:15:ac:8a:b1:70:56:24:58:37:
                    d2:5d:2b:c0:d3:9b:0a:b0:bd:00:dc:92:d1:0b:4f:
                    14:dd:11:06:51:81:7c:77:60:30:fb:05:e2:a5:e8:
                    35:74:b3:10:e0:72:bf:4e:72:f6:22:c6:30:b1:76:
                    c1:52:66:d7:73:e5:e0:3d:f2:b4:ce:79:95:eb:7f:
                    8a:7e:81:83:e9:d0:7c:74:c4:47:3d:40:94:69:55:
                    1d:9f:ea:11:dd:ab:41:ea:97:e4:b9:64:37:0e:6e:
                    c1:21:2d:36:2c:8b:ec:c5:3d:1a:e2:d6:6e:0b:e9:
                    3c:52:32:47:ac:5a:68:56:a6:3e:2b:23:c9:0b:89:
                    f3:cd
                Exponent: 65537 (0x10001)
        X509v3 extensions:
            X509v3 Subject Key Identifier: 
                18:F7:0A:C1:15:55:7F:52:26:FF:63:76:08:D0:07:CB:45:10:31:91
            X509v3 Authority Key Identifier: 
                keyid:4D:F2:67:4F:A4:FF:95:73:02:C3:DE:B8:73:DE:6E:F6:48:D9:C1:21

            X509v3 Basic Constraints: 
                CA:FALSE
            X509v3 Key Usage: critical
                Digital Signature, Key Encipherment
            X509v3 Extended Key Usage: 
                TLS Web Server Authentication
            ROLE: 
                ..OPERATOR
    Signature Algorithm: sha384WithRSAEncryption
         70:8d:d8:33:fd:8a:1a:ca:8f:0b:51:6d:d0:7e:d9:71:01:4f:
         b9:c2:54:87:f1:d0:7a:7c:b2:0b:68:9d:98:02:dd:9d:c0:08:
         44:82:e1:cc:17:4b:84:7f:8f:5d:71:8c:58:7a:9c:73:d9:15:
         22:44:d3:df:c5:f5:d4:e6:11:cf:f2:d3:e3:38:1f:3a:b4:59:
         be:f3:90:9e:86:8a:d0:de:ba:8c:cc:16:7c:1c:77:36:3c:7b:
         9d:c9:ae:6b:f8:7e:78:f9:45:37:81:c1:e0:b2:fa:52:81:8d:
         32:23:0b:f0:8b:e7:9b:d0:8a:73:c4:fd:79:d3:52:0c:83:50:
         80:76:3f:b3:99:27:f2:c1:18:26:0e:3a:1b:fa:f6:4a:fe:62:
         61:e6:69:61:5b:c1:9c:d0:c6:01:95:44:f7:f6:73:3b:8a:55:
         cb:3d:f7:95:22:6b:c4:fe:8c:cb:27:69:42:63:d6:52:c3:71:
         96:44:06:cc:23:f4:4a:cf:76:b8:ff:b2:03:f0:ab:4a:e2:27:
         75:38:0a:82:79:75:c3:37:eb:41:af:6d:85:7f:ba:5e:18:f4:
         89:d4:ae:49:7b:5d:98:3c:a8:f3:f6:44:87:72:a8:df:58:bf:
         c2:cd:9d:72:56:15:c6:8a:30:37:af:85:bf:51:8b:e0:ce:62:
         ae:f7:e6:ec:56:c0:e1:e7:23:10:f0:f4:a3:a4:21:94:bb:bb:
         2c:ce:42:75:68:23:91:e0:52:16:86:0d:ed:f0:ae:ff:4a:02:
         6f:aa:45:3a:5f:c6:93:94:e0:cb:d1:b8:26:64:e7:f8:b3:9a:
         04:fc:fc:42:6b:57:58:67:aa:e4:2e:8e:37:13:e8:ff:5e:1d:
         41:70:72:9d:16:61:17:24:ad:97:27:0c:76:b0:6b:5d:29:30:
         f3:c1:1c:66:a3:65:cb:97:90:1d:6e:23:2e:89:68:a4:cf:73:
         01:9f:f8:d4:1f:2d:e1:70:4c:39:a5:f8:22:b1:d9:eb:3f:ff:
         aa:39:70:59:dc:cd:92:91:12:96:b5:b2:a5:48:8b:72:e3:d1:
         75:25:e4:eb:43:b9:85:ca:89:72:7d:fc:5b:20:3b:a8:96:92:
         af:02:81:5d:e8:25:14:0d:9a:ec:a8:73:49:0f:27:c2:e2:e6:
         2d:0f:e7:45:cb:ef:b9:0f:13:e5:da:1e:7d:1f:1c:64:9e:60:
         a2:61:d7:ee:57:21:ab:79:63:e3:b6:19:14:f4:10:a4:cd:28:
         32:29:7b:6a:22:55:d8:58:7c:7e:26:80:1a:23:22:fb:bb:3e:
         7f:f2:c3:e3:bb:31:ed:fb:de:69:06:4a:85:bd:fd:09:4b:c8:
         02:5a:75:c8:94:8d:72:03
-----BEGIN CERTIFICATE-----
MIIFczCCA1ugAwIBAgIJAP1NxIj6rXRvMA0GCSqGSIb3DQEBDAUAMIGwMQswCQYD
VQQGEwJVUzEdMBsGA1UECAwURGlzdHJpY3Qgb2YgQ29sdW1iaWExEzARBgNVBAcM
Cldhc2hpbmd0b24xIjAgBgNVBAoMGVdpcmVsZXNzIElubm92YXRpb24gRm9ydW0x
IzAhBgNVBAsMGnd3dy53aXJlbGVzc2lubm92YXRpb24ub3JnMSQwIgYDVQQDDBtX
SW5uRm9ydW0gUlNBIE9wZXJhdG9yIENBLTEwHhcNMTYwODAyMTkxMjUwWhcNMTkx
MDMxMTkxMjUwWjCBsDELMAkGA1UEBhMCVVMxHTAbBgNVBAgMFERpc3RyaWN0IG9m
IENvbHVtYmlhMRMwEQYDVQQHDApXYXNoaW5ndG9uMSIwIAYDVQQKDBlXaXJlbGVz
cyBJbm5vdmF0aW9uIEZvcnVtMSMwIQYDVQQLDBp3d3cud2lyZWxlc3Npbm5vdmF0
aW9uLm9yZzEkMCIGA1UEAwwbT3BlcmF0b3IgRW5kLUVudGl0eSBFeGFtcGxlMIIB
IjANBgkqhkiG9w0BAQEFAAOCAQ8AMIIBCgKCAQEAoFBWf1QCxqfsuR0hDToWWryi
Z2SP+LodFDKBPhQNhxTOFYcejKESuojNXN7ARkwiYPJMv+7yvHiaTC1vjXxjUi+I
GDxlr8P4yaBLSewMOE/3shxKmRNeTCWpPaeNvLHMO+dIgiO6ZaUSAvydbeLXdIAU
Sfkx1Sj+rMy4p1oVrIqxcFYkWDfSXSvA05sKsL0A3JLRC08U3REGUYF8d2Aw+wXi
peg1dLMQ4HK/TnL2IsYwsXbBUmbXc+XgPfK0znmV63+KfoGD6dB8dMRHPUCUaVUd
n+oR3atB6pfkuWQ3Dm7BIS02LIvsxT0a4tZuC+k8UjJHrFpoVqY+KyPJC4nzzQID
AQABo4GNMIGKMB0GA1UdDgQWBBQY9wrBFVV/Uib/Y3YI0AfLRRAxkTAfBgNVHSME
GDAWgBRN8mdPpP+VcwLD3rhz3m72SNnBITAJBgNVHRMEAjAAMA4GA1UdDwEB/wQE
AwIFoDATBgNVHSUEDDAKBggrBgEFBQcDATAYBgorBgEEAYLsEQEBBAoMCE9QRVJB
VE9SMA0GCSqGSIb3DQEBDAUAA4ICAQBwjdgz/Yoayo8LUW3QftlxAU+5wlSH8dB6
fLILaJ2YAt2dwAhEguHMF0uEf49dcYxYepxz2RUiRNPfxfXU5hHP8tPjOB86tFm+
85CehorQ3rqMzBZ8HHc2PHudya5r+H54+UU3gcHgsvpSgY0yIwvwi+eb0IpzxP15
01IMg1CAdj+zmSfywRgmDjob+vZK/mJh5mlhW8Gc0MYBlUT39nM7ilXLPfeVImvE
/ozLJ2lCY9ZSw3GWRAbMI/RKz3a4/7ID8KtK4id1OAqCeXXDN+tBr22Ff7peGPSJ
1K5Je12YPKjz9kSHcqjfWL/CzZ1yVhXGijA3r4W/UYvgzmKu9+bsVsDh5yMQ8PSj
pCGUu7sszkJ1aCOR4FIWhg3t8K7/SgJvqkU6X8aTlODL0bgmZOf4s5oE/PxCa1dY
Z6rkLo43E+j/Xh1BcHKdFmEXJK2XJwx2sGtdKTDzwRxmo2XLl5AdbiMuiWikz3MB
n/jUHy3hcEw5pfgisdnrP/+qOXBZ3M2SkRKWtbKlSIty49F1JeTrQ7mFyolyffxb
IDuolpKvAoFd6CUUDZrsqHNJDyfC4uYtD+dFy++5DxPl2h59HxxknmCiYdfuVyGr
eWPjthkU9BCkzSgyKXtqIlXYWHx+JoAaIyL7uz5/8sPjuzHt+95pBkqFvf0JS8gC
WnXIlI1yAw==
-----END CERTIFICATE-----
