Certificate:
    Data:
        Version: 3 (0x2)
        Serial Number:
            ec:92:f2:f6:e5:ac:f1:63
        Signature Algorithm: sha384WithRSAEncryption
        Issuer: C=US, ST=District of Columbia, L=Washington, O=Wireless Innovation Forum, OU=www.wirelessinnovation.org, CN=WInnForum RSA Root CA-1
        Validity
            Not Before: Jun 30 16:37:53 2016 GMT
            Not After : Jun 27 16:37:53 2031 GMT
        Subject: C=US, ST=District of Columbia, L=Washington, O=Wireless Innovation Forum, OU=www.wirelessinnovation.org, CN=WInnForum RSA SAS CA-1
        Subject Public Key Info:
            Public Key Algorithm: rsaEncryption
            RSA Public Key: (4096 bit)
                Modulus (4096 bit):
                    00:aa:f3:dc:03:5a:96:1a:ce:2f:ba:17:63:f7:bb:
                    d8:c2:1f:6a:2a:d7:9d:66:0c:23:a1:0b:65:50:37:
                    ec:a7:fa:77:8d:1b:c0:4c:50:e7:bf:ad:b7:54:0b:
                    48:b8:bb:5a:c7:a8:9f:29:d6:50:36:4a:ec:08:a4:
                    bc:25:6d:56:ec:3e:19:33:cd:f4:c2:ee:e3:0b:d6:
                    4c:39:1c:e9:c5:29:49:89:7c:2f:42:ab:9c:82:82:
                    e5:f9:88:11:b0:56:59:e2:fe:97:48:0b:d8:b6:c6:
                    2d:e1:3a:ef:21:7d:92:0c:e5:59:7f:53:a8:e6:71:
                    94:31:79:fc:97:ad:ad:73:e3:bf:d1:1b:4b:62:3e:
                    9b:e3:46:d1:15:9b:f0:01:51:27:65:1f:ea:68:99:
                    81:97:21:57:c0:d4:6a:c1:3d:fa:b0:fc:d2:91:29:
                    c4:90:16:02:1a:2e:f5:38:94:82:b0:f3:19:22:13:
                    e0:e4:9f:a1:8c:5c:fe:3b:cc:a8:51:8e:1e:80:c2:
                    45:20:53:64:dd:d3:54:bc:22:0a:d8:37:f0:86:ad:
                    16:dd:0d:f4:c8:c1:dc:37:57:b8:6c:7f:15:7b:b6:
                    9a:40:49:9b:f4:84:d6:12:19:db:9c:07:03:73:2e:
                    7d:bc:9b:71:2e:9e:8e:fd:61:c3:a6:7b:56:0e:a1:
                    a1:da:31:ad:1a:d2:6e:11:95:8c:89:94:47:4c:db:
                    c2:2e:50:2d:72:5c:0e:db:c2:3a:c4:7c:f8:6b:9f:
                    d8:e7:0d:d0:96:79:ca:f5:f4:58:4e:ea:5c:38:92:
                    0f:78:ac:e7:26:68:f9:af:8f:93:51:d9:89:5b:71:
                    e0:5b:a8:97:ef:5e:7a:67:e2:ba:68:3e:96:01:ae:
                    3d:cf:cb:9f:01:dd:ad:16:75:17:35:d5:3e:a0:cc:
                    b0:81:45:2c:6a:0c:da:e6:7b:e4:30:ed:75:29:27:
                    02:11:fb:2c:d3:07:61:54:49:5a:8b:c2:f7:4e:6c:
                    6a:6f:2b:15:84:f4:2c:0a:4b:1f:24:22:e2:de:ed:
                    70:87:1e:92:33:e6:7a:99:34:76:45:01:79:57:16:
                    7f:38:7a:9e:e5:05:29:c0:82:8e:bb:20:7b:d5:0e:
                    9b:d2:58:dc:04:ee:a9:a8:cd:cf:71:30:c0:db:04:
                    4b:a6:7c:b8:75:66:ff:d0:3e:ca:db:49:1d:2a:3e:
                    c8:5b:fd:85:fb:1c:a4:f4:7e:92:f8:53:1b:82:c9:
                    9b:1b:cf:8e:e3:2e:4a:b4:5f:1b:8e:d3:60:44:7b:
                    dd:4e:1f:38:a4:49:8d:b7:3c:41:d3:45:b6:fd:a4:
                    a7:18:d5:8c:bc:31:74:aa:c7:52:5a:c3:4a:0b:be:
                    37:59:c5
                Exponent: 65537 (0x10001)
        X509v3 extensions:
            X509v3 Subject Key Identifier: 
                A9:01:36:97:9B:1F:BA:12:6D:B5:F6:AF:F9:5C:D5:0E:DD:7C:60:27
            X509v3 Authority Key Identifier: 
                keyid:E2:DE:71:95:0A:CB:DF:09:EB:DC:03:02:1F:E3:B8:9A:6C:87:54:88

            X509v3 Basic Constraints: critical
                CA:TRUE, pathlen:0
            X509v3 Key Usage: critical
                Digital Signature, Certificate Sign, CRL Sign
            ROLE: 
                0...SAS..CA
    Signature Algorithm: sha384WithRSAEncryption
        92:78:2e:b6:ec:3c:0b:59:60:9c:08:76:e5:5c:30:1b:a8:6e:
        a3:d2:4d:17:ae:e3:e2:ac:f1:2d:58:14:8f:d1:d3:9e:ff:c3:
        77:b0:b2:5e:8b:15:e7:fb:32:00:09:ad:6c:08:58:db:ca:a3:
        3a:16:45:94:87:a2:c4:89:50:26:7a:cb:3a:9d:22:3d:61:01:
        e8:f0:39:d4:21:54:b6:16:e9:6c:29:35:b3:6b:41:d2:07:70:
        f8:85:cd:7c:35:25:55:75:75:0f:6e:5d:07:2b:cf:eb:38:e9:
        0e:bd:d4:d8:9c:a3:bb:86:e1:57:a8:f5:fd:10:6a:0e:b5:33:
        de:7f:38:b9:94:7b:29:ea:5f:c7:2b:1f:0c:2a:51:84:da:9e:
        36:42:48:f2:1b:83:e1:0e:bb:3c:ae:df:ca:0f:c3:1d:63:4c:
        bc:80:f2:a2:6d:a2:e7:3d:b6:f3:1a:86:6a:2d:46:0b:f6:af:
        bf:5f:eb:28:44:4d:96:aa:58:d1:7b:99:8c:5d:57:8a:6b:f0:
        4b:c4:09:75:20:3a:60:ef:6c:52:a8:5b:07:c2:63:d5:ed:61:
        a4:c0:b1:92:83:dc:e1:5e:08:d7:f4:83:17:24:f6:2b:5e:20:
        d5:1f:9f:7f:b7:41:bf:81:c8:cf:6a:e7:2f:56:e9:ac:c4:f2:
        ab:07:e3:0b:c8:04:58:d1:d8:77:a7:d8:1b:e0:56:c0:79:fc:
        a2:0f:c4:a4:25:c3:65:e8:77:04:70:d1:63:f1:24:c8:1a:2f:
        c8:f8:c4:be:16:18:e5:a9:8a:37:41:d8:d1:97:93:db:f4:9e:
        c6:b4:3a:d1:47:c2:80:fe:78:59:18:0c:51:a0:cf:44:12:24:
        85:cf:ee:b0:b1:34:09:25:0d:9e:a0:88:6f:72:f2:a3:5c:c1:
        7e:47:a0:f7:28:c0:11:92:18:a6:98:54:62:19:a8:61:8b:69:
        10:8b:71:0b:8a:b2:47:fe:89:46:4e:10:1e:34:69:bb:ce:15:
        fc:90:9c:38:7e:84:4e:13:e6:24:1f:c8:3a:3f:22:24:45:c3:
        ba:e7:f1:0e:17:30:ba:8d:95:37:54:e4:fa:07:6a:68:68:de:
        42:f4:1e:63:e0:a2:eb:6b:b0:3c:d1:e0:b8:c8:83:f2:27:b1:
        d0:9f:6b:15:95:3d:82:b7:50:3c:73:44:e2:29:28:47:c9:f9:
        9f:7d:cb:bf:a3:97:49:d5:99:42:d1:d5:45:89:e1:dc:2c:4f:
        4d:e4:6e:cd:23:ea:8c:1f:b3:cd:c2:6e:69:4e:e7:39:ef:13:
        06:af:48:59:07:14:f4:39:af:75:0b:84:4c:89:59:1a:17:1b:
        fa:f5:a7:66:1a:08:66:85
-----BEGIN CERTIFICATE-----
MIIGXjCCBEagAwIBAgIJAOyS8vblrPFjMA0GCSqGSIb3DQEBDAUAMIGsMQswCQYD
VQQGEwJVUzEdMBsGA1UECAwURGlzdHJpY3Qgb2YgQ29sdW1iaWExEzARBgNVBAcM
Cldhc2hpbmd0b24xIjAgBgNVBAoMGVdpcmVsZXNzIElubm92YXRpb24gRm9ydW0x
IzAhBgNVBAsMGnd3dy53aXJlbGVzc2lubm92YXRpb24ub3JnMSAwHgYDVQQDDBdX
SW5uRm9ydW0gUlNBIFJvb3QgQ0EtMTAeFw0xNjA2MzAxNjM3NTNaFw0zMTA2Mjcx
NjM3NTNaMIGrMQswCQYDVQQGEwJVUzEdMBsGA1UECAwURGlzdHJpY3Qgb2YgQ29s
dW1iaWExEzARBgNVBAcMCldhc2hpbmd0b24xIjAgBgNVBAoMGVdpcmVsZXNzIElu
bm92YXRpb24gRm9ydW0xIzAhBgNVBAsMGnd3dy53aXJlbGVzc2lubm92YXRpb24u
b3JnMR8wHQYDVQQDDBZXSW5uRm9ydW0gUlNBIFNBUyBDQS0xMIICIjANBgkqhkiG
9w0BAQEFAAOCAg8AMIICCgKCAgEAqvPcA1qWGs4vuhdj97vYwh9qKtedZgwjoQtl
UDfsp/p3jRvATFDnv623VAtIuLtax6ifKdZQNkrsCKS8JW1W7D4ZM830wu7jC9ZM
ORzpxSlJiXwvQqucgoLl+YgRsFZZ4v6XSAvYtsYt4TrvIX2SDOVZf1Oo5nGUMXn8
l62tc+O/0RtLYj6b40bRFZvwAVEnZR/qaJmBlyFXwNRqwT36sPzSkSnEkBYCGi71
OJSCsPMZIhPg5J+hjFz+O8yoUY4egMJFIFNk3dNUvCIK2Dfwhq0W3Q30yMHcN1e4
bH8Ve7aaQEmb9ITWEhnbnAcDcy59vJtxLp6O/WHDpntWDqGh2jGtGtJuEZWMiZRH
TNvCLlAtclwO28I6xHz4a5/Y5w3QlnnK9fRYTupcOJIPeKznJmj5r4+TUdmJW3Hg
W6iX7156Z+K6aD6WAa49z8ufAd2tFnUXNdU+oMywgUUsagza5nvkMO11KScCEfss
0wdhVElai8L3TmxqbysVhPQsCksfJCLi3u1whx6SM+Z6mTR2RQF5VxZ/OHqe5QUp
wIKOuyB71Q6b0ljcBO6pqM3PcTDA2wRLpny4dWb/0D7K20kdKj7IW/2F+xyk9H6S
+FMbgsmbG8+O4y5KtF8bjtNgRHvdTh84pEmNtzxB00W2/aSnGNWMvDF0qsdSWsNK
C743WcUCAwEAAaOBgTB/MB0GA1UdDgQWBBSpATaXmx+6Em219q/5XNUO3XxgJzAf
BgNVHSMEGDAWgBTi3nGVCsvfCevcAwIf47iabIdUiDASBgNVHRMBAf8ECDAGAQH/
AgEAMA4GA1UdDwEB/wQEAwIBhjAZBgorBgEEAYLsEQEBBAswCQwDU0FTDAJDQTAN
BgkqhkiG9w0BAQwFAAOCAgEAkngutuw8C1lgnAh25VwwG6huo9JNF67j4qzxLVgU
j9HTnv/Dd7CyXosV5/syAAmtbAhY28qjOhZFlIeixIlQJnrLOp0iPWEB6PA51CFU
thbpbCk1s2tB0gdw+IXNfDUlVXV1D25dByvP6zjpDr3U2Jyju4bhV6j1/RBqDrUz
3n84uZR7KepfxysfDCpRhNqeNkJI8huD4Q67PK7fyg/DHWNMvIDyom2i5z228xqG
ai1GC/avv1/rKERNlqpY0XuZjF1XimvwS8QJdSA6YO9sUqhbB8Jj1e1hpMCxkoPc
4V4I1/SDFyT2K14g1R+ff7dBv4HIz2rnL1bprMTyqwfjC8gEWNHYd6fYG+BWwHn8
og/EpCXDZeh3BHDRY/EkyBovyPjEvhYY5amKN0HY0ZeT2/SexrQ60UfCgP54WRgM
UaDPRBIkhc/usLE0CSUNnqCIb3Lyo1zBfkeg9yjAEZIYpphUYhmoYYtpEItxC4qy
R/6JRk4QHjRpu84V/JCcOH6EThPmJB/IOj8iJEXDuufxDhcwuo2VN1Tk+gdqaGje
QvQeY+Ci62uwPNHguMiD8iex0J9rFZU9grdQPHNE4ikoR8n5n33Lv6OXSdWZQtHV
RYnh3CxPTeRuzSPqjB+zzcJuaU7nOe8TBq9IWQcU9DmvdQuETIlZGhcb+vWnZhoI
ZoU=
-----END CERTIFICATE-----
