Certificate:
    Data:
        Version: 3 (0x2)
        Serial Number: 16534221079554972641 (0xe5755a7844a65be1)
    Signature Algorithm: sha384WithRSAEncryption
        Issuer: C=US, ST=District of Columbia, L=Washington, O=Wireless Innovation Forum, OU=www.wirelessinnovation.org, CN=WInnForum RSA Root CA-1
        Validity
            Not Before: Sep 15 02:56:26 2017 GMT
            Not After : Sep 11 02:56:26 2032 GMT
        Subject: C=US, ST=District of Columbia, L=Washington, O=Wireless Innovation Forum, OU=www.wirelessinnovation.org, CN=WInnForum RSA Installer CA-1
        Subject Public Key Info:
            Public Key Algorithm: rsaEncryption
                Public-Key: (4096 bit)
                Modulus:
                    00:cd:2c:3d:48:ff:6e:2b:d7:b1:be:1a:a2:75:08:
                    bf:0b:22:16:af:78:f8:6b:d6:15:e4:e9:f5:56:37:
                    d0:4f:77:5d:38:2e:fb:95:91:54:78:4d:ed:f1:93:
                    7f:2e:86:a3:bd:7f:92:29:80:af:82:4b:f8:16:36:
                    ee:78:b4:66:27:5f:e6:b0:e8:66:48:b3:20:47:1e:
                    b9:7f:43:2e:ed:92:78:e1:7d:41:e1:ca:9d:c5:f3:
                    cf:a9:91:e2:5c:93:50:5b:d5:9d:44:e8:3f:36:11:
                    41:e1:94:14:d3:31:f2:c8:29:a9:e6:71:c7:c2:5f:
                    9b:4d:14:c5:d6:a4:fc:00:81:93:e0:87:88:ed:10:
                    d5:fe:ff:2c:a7:d1:fb:4b:b2:ef:f1:7e:2d:ab:9d:
                    50:97:ee:ac:5d:69:1c:e3:76:a1:05:77:88:b9:28:
                    21:b2:12:44:a7:99:b4:dc:be:9c:6a:cf:13:d5:11:
                    fb:87:1b:78:cd:fb:f4:02:4b:1a:ee:b0:a7:82:5b:
                    46:ba:28:27:ea:54:71:85:1c:95:45:58:52:ca:dc:
                    f4:fe:22:4c:e8:91:64:9e:73:d8:53:72:21:dc:ae:
                    d3:ca:43:f1:67:db:de:5c:65:12:cb:f8:d1:46:94:
                    56:b8:54:a5:a0:26:6c:01:55:56:1a:4b:2c:a4:93:
                    44:30:63:9b:a0:2c:59:d3:bc:a3:13:27:ea:82:75:
                    64:6b:77:f0:ba:38:39:37:d2:00:e2:dc:03:4f:0f:
                    04:05:5f:4e:e8:96:be:a5:d0:17:a7:86:ff:93:a8:
                    67:f7:79:3b:5d:b6:75:95:19:30:6f:d6:45:8b:10:
                    dc:08:5b:55:13:7b:33:e1:01:d0:1f:16:6f:bd:e2:
                    e3:55:36:25:ed:86:68:23:ed:43:39:b6:ff:4f:ec:
                    df:c0:d2:b9:92:fd:92:28:e9:88:a0:1a:a7:ce:74:
                    93:51:1c:6a:67:7a:68:13:9e:f7:cf:e4:a7:9a:13:
                    5d:5b:d0:f7:ed:27:69:54:67:e4:f5:ae:90:e9:f5:
                    ac:b9:a8:0a:03:af:59:80:38:39:b9:93:e3:fa:d5:
                    8a:83:be:8d:12:f2:1b:9a:1a:29:54:db:54:79:29:
                    6b:cd:7b:91:0a:c4:b8:b5:81:18:3b:ab:b7:7d:85:
                    21:42:49:4a:ce:98:25:cf:60:bf:02:13:88:0a:48:
                    4e:21:53:36:f5:b8:4a:96:4e:2d:df:3b:c1:fd:3f:
                    f4:8b:7c:1b:0e:e7:f7:3a:ce:b6:c3:ac:24:dd:c2:
                    6a:e0:74:54:24:32:f4:19:31:90:5f:20:46:df:84:
                    2d:f8:fc:9d:ec:e5:c7:92:51:4a:1b:6a:35:c4:e5:
                    20:fc:83
                Exponent: 65537 (0x10001)
        X509v3 extensions:
            X509v3 Subject Key Identifier: 
                7A:0C:40:A8:B0:A1:1B:9F:CE:3F:91:E4:C1:A0:92:B4:75:FD:9C:28
            X509v3 Authority Key Identifier: 
                keyid:00:A9:09:6B:FE:DA:E8:98:AD:DA:7D:79:F6:E3:FD:83:43:F2:B7:AD

            X509v3 Basic Constraints: critical
                CA:TRUE, pathlen:0
            X509v3 Key Usage: critical
                Digital Signature, Certificate Sign, CRL Sign
            X509v3 Certificate Policies: 
                Policy: 2.16.840.1.114412.2.1
                  CPS: https://www.digicert.com/CPS
                Policy: ROLE_CA
                Policy: ROLE_INSTALLER

    Signature Algorithm: sha384WithRSAEncryption
         9a:c6:76:fd:fb:cb:22:35:8c:e6:56:be:fd:29:e9:d9:21:53:
         68:44:98:06:72:d9:8f:65:36:f8:cc:9a:cf:58:f8:9b:7b:00:
         9c:83:fb:6a:28:f3:3a:3d:29:1d:8e:08:fd:90:7d:28:62:e5:
         36:7c:b4:59:8a:45:be:a2:85:14:c4:17:70:f0:48:ef:4f:30:
         96:2e:e6:5a:8f:49:9f:99:31:f6:80:30:98:41:52:43:20:df:
         85:c5:4b:5b:61:af:b8:76:3d:2e:bf:91:e8:af:99:06:5c:a4:
         08:c5:2f:70:d9:b7:a7:0d:2b:b9:20:df:e0:08:66:0b:53:ac:
         d9:aa:f4:b9:51:2d:f9:90:64:b9:7a:56:27:34:ff:d7:1e:bf:
         41:91:73:95:4b:fc:2d:3f:87:cd:b0:e1:f6:1b:63:73:90:a5:
         ea:62:b9:ea:95:9f:b3:26:aa:73:43:8a:53:77:81:21:16:75:
         6e:75:db:a0:25:6d:9d:b3:e8:04:68:ac:53:5c:54:28:ed:4e:
         46:dc:a7:32:92:f7:fa:6a:30:c0:10:b5:1a:6d:f0:9e:48:63:
         f4:68:95:0f:aa:c1:d3:6a:ec:a0:04:b3:f5:ab:c6:b1:96:1f:
         db:1e:70:ef:c2:3e:c6:6c:2c:bf:70:6a:e6:a4:02:a8:1e:6f:
         68:f9:89:ab:2f:98:93:b3:06:3e:cc:e4:be:a0:79:c5:21:63:
         bb:f8:d0:ca:7f:4e:16:9a:f8:07:c2:30:45:84:5e:a3:b7:c2:
         9e:34:18:50:29:38:27:29:bb:35:1e:1c:9d:12:0c:69:80:9d:
         50:04:2c:36:b9:15:1c:fa:9e:59:97:67:61:a7:2c:93:ec:f0:
         7f:fe:8f:3b:7a:23:54:ca:24:56:68:71:cd:b8:6a:79:89:95:
         d2:89:f0:20:75:a5:c5:5f:1f:d7:f2:54:9d:08:e0:3e:ec:67:
         4b:9b:5c:2e:cd:62:a1:dc:98:f4:ee:9a:8e:91:7b:b4:2d:63:
         6f:70:ee:fe:fa:f6:94:2f:3c:68:fd:77:66:dd:77:d6:a0:54:
         6f:7c:b9:96:41:27:d2:53:f8:89:3e:88:ed:a4:64:9e:10:2b:
         db:54:d2:de:9d:a0:b9:d7:86:d1:6f:53:3f:94:d3:45:91:7b:
         a0:36:f7:f4:fd:35:54:d6:01:5c:c4:34:1e:b9:27:a7:73:51:
         ef:e1:1b:81:ff:55:1e:4a:98:47:0a:bc:b3:c7:3f:21:b0:0a:
         71:49:89:f3:24:51:ce:18:7f:c5:45:35:13:c8:d1:dd:1b:5e:
         e8:9d:fd:b4:37:af:f1:23:17:42:b7:84:a1:78:6d:bb:f2:b1:
         80:8c:5c:df:71:db:1c:ba
-----BEGIN CERTIFICATE-----
MIIGrDCCBJSgAwIBAgIJAOV1WnhEplvhMA0GCSqGSIb3DQEBDAUAMIGsMQswCQYD
VQQGEwJVUzEdMBsGA1UECAwURGlzdHJpY3Qgb2YgQ29sdW1iaWExEzARBgNVBAcM
Cldhc2hpbmd0b24xIjAgBgNVBAoMGVdpcmVsZXNzIElubm92YXRpb24gRm9ydW0x
IzAhBgNVBAsMGnd3dy53aXJlbGVzc2lubm92YXRpb24ub3JnMSAwHgYDVQQDDBdX
SW5uRm9ydW0gUlNBIFJvb3QgQ0EtMTAeFw0xNzA5MTUwMjU2MjZaFw0zMjA5MTEw
MjU2MjZaMIGxMQswCQYDVQQGEwJVUzEdMBsGA1UECAwURGlzdHJpY3Qgb2YgQ29s
dW1iaWExEzARBgNVBAcMCldhc2hpbmd0b24xIjAgBgNVBAoMGVdpcmVsZXNzIElu
bm92YXRpb24gRm9ydW0xIzAhBgNVBAsMGnd3dy53aXJlbGVzc2lubm92YXRpb24u
b3JnMSUwIwYDVQQDDBxXSW5uRm9ydW0gUlNBIEluc3RhbGxlciBDQS0xMIICIjAN
BgkqhkiG9w0BAQEFAAOCAg8AMIICCgKCAgEAzSw9SP9uK9exvhqidQi/CyIWr3j4
a9YV5On1VjfQT3ddOC77lZFUeE3t8ZN/LoajvX+SKYCvgkv4FjbueLRmJ1/msOhm
SLMgRx65f0Mu7ZJ44X1B4cqdxfPPqZHiXJNQW9WdROg/NhFB4ZQU0zHyyCmp5nHH
wl+bTRTF1qT8AIGT4IeI7RDV/v8sp9H7S7Lv8X4tq51Ql+6sXWkc43ahBXeIuSgh
shJEp5m03L6cas8T1RH7hxt4zfv0Aksa7rCngltGuign6lRxhRyVRVhSytz0/iJM
6JFknnPYU3Ih3K7TykPxZ9veXGUSy/jRRpRWuFSloCZsAVVWGksspJNEMGOboCxZ
07yjEyfqgnVka3fwujg5N9IA4twDTw8EBV9O6Ja+pdAXp4b/k6hn93k7XbZ1lRkw
b9ZFixDcCFtVE3sz4QHQHxZvveLjVTYl7YZoI+1DObb/T+zfwNK5kv2SKOmIoBqn
znSTURxqZ3poE573z+SnmhNdW9D37SdpVGfk9a6Q6fWsuagKA69ZgDg5uZPj+tWK
g76NEvIbmhopVNtUeSlrzXuRCsS4tYEYO6u3fYUhQklKzpglz2C/AhOICkhOIVM2
9bhKlk4t3zvB/T/0i3wbDuf3Os62w6wk3cJq4HRUJDL0GTGQXyBG34Qt+Pyd7OXH
klFKG2o1xOUg/IMCAwEAAaOByTCBxjAdBgNVHQ4EFgQUegxAqLChG5/OP5HkwaCS
tHX9nCgwHwYDVR0jBBgwFoAUAKkJa/7a6Jit2n159uP9g0Pyt60wEgYDVR0TAQH/
BAgwBgEB/wIBADAOBgNVHQ8BAf8EBAMCAYYwYAYDVR0gBFkwVzA3BglghkgBhv1s
AgEwKjAoBggrBgEFBQcCARYcaHR0cHM6Ly93d3cuZGlnaWNlcnQuY29tL0NQUzAN
BgsrBgEEAYLsEQEBATANBgsrBgEEAYLsEQEBBjANBgkqhkiG9w0BAQwFAAOCAgEA
msZ2/fvLIjWM5la+/Snp2SFTaESYBnLZj2U2+Myaz1j4m3sAnIP7aijzOj0pHY4I
/ZB9KGLlNny0WYpFvqKFFMQXcPBI708wli7mWo9Jn5kx9oAwmEFSQyDfhcVLW2Gv
uHY9Lr+R6K+ZBlykCMUvcNm3pw0ruSDf4AhmC1Os2ar0uVEt+ZBkuXpWJzT/1x6/
QZFzlUv8LT+HzbDh9htjc5Cl6mK56pWfsyaqc0OKU3eBIRZ1bnXboCVtnbPoBGis
U1xUKO1ORtynMpL3+mowwBC1Gm3wnkhj9GiVD6rB02rsoASz9avGsZYf2x5w78I+
xmwsv3Bq5qQCqB5vaPmJqy+Yk7MGPszkvqB5xSFju/jQyn9OFpr4B8IwRYReo7fC
njQYUCk4Jym7NR4cnRIMaYCdUAQsNrkVHPqeWZdnYacsk+zwf/6PO3ojVMokVmhx
zbhqeYmV0onwIHWlxV8f1/JUnQjgPuxnS5tcLs1iodyY9O6ajpF7tC1jb3Du/vr2
lC88aP13Zt131qBUb3y5lkEn0lP4iT6I7aRknhAr21TS3p2gudeG0W9TP5TTRZF7
oDb39P01VNYBXMQ0Hrknp3NR7+Ebgf9VHkqYRwq8s8c/IbAKcUmJ8yRRzhh/xUU1
E8jR3Rte6J39tDev8SMXQreEoXhtu/KxgIxc33HbHLo=
-----END CERTIFICATE-----
