Certificate:
    Data:
        Version: 3 (0x2)
        Serial Number: 18252460957402756205 (0xfd4dc488faad746d)
    Signature Algorithm: sha384WithRSAEncryption
        Issuer: C=US, ST=District of Columbia, L=Washington, O=Wireless Innovation Forum, OU=www.wirelessinnovation.org, CN=WInnForum RSA SAS CA-1
        Validity
            Not Before: Aug  2 19:12:49 2016 GMT
            Not After : Oct 31 19:12:49 2019 GMT
        Subject: C=US, ST=District of Columbia, L=Washington, O=Wireless Innovation Forum, OU=www.wirelessinnovation.org, CN=SAS End-Entity Example
        Subject Public Key Info:
            Public Key Algorithm: rsaEncryption
                Public-Key: (2048 bit)
                Modulus:
                    00:d4:c3:90:d4:10:9b:b0:80:48:26:c5:c7:b1:4f:
                    03:26:93:0e:7e:08:b7:9e:94:df:9c:00:4d:96:31:
                    6c:f4:a6:6c:60:d3:bb:96:67:ab:28:0c:d3:75:ee:
                    5d:cd:2d:98:00:0c:00:cb:fe:fe:64:88:fd:8b:79:
                    76:83:84:81:3f:ce:89:2e:cf:ad:4d:46:f4:40:44:
                    11:7f:b9:55:02:eb:90:fb:6b:92:20:5b:e1:00:45:
                    ef:93:e0:e6:bd:fc:cb:e6:24:29:ef:45:c0:4f:da:
                    78:5e:83:ce:e4:33:03:43:15:0b:f8:8b:b3:b9:a1:
                    3d:71:fc:87:df:e5:2e:b9:07:20:35:b2:e0:58:27:
                    41:82:21:8c:d0:96:6d:6d:82:5c:89:76:65:dd:3d:
                    c8:7a:f7:11:94:8c:e9:77:7d:40:ac:46:3a:ba:e0:
                    20:51:38:a8:d4:b8:a1:2d:d4:5a:3c:d4:6c:8f:f3:
                    15:dc:33:83:f9:cd:f0:19:88:c9:52:3c:93:86:a3:
                    d4:30:16:35:19:a1:73:de:c0:fa:2b:3b:df:b1:30:
                    c0:79:7e:e8:d7:ea:a3:c2:69:1a:9a:40:ae:97:28:
                    e7:b4:63:d6:03:f9:25:a3:2f:f7:c7:23:d9:64:91:
                    1f:8b:9d:ea:7b:67:4e:a3:10:2e:20:4a:a9:5b:09:
                    54:bd
                Exponent: 65537 (0x10001)
        X509v3 extensions:
            X509v3 Subject Key Identifier: 
                F2:14:0B:2C:5B:C5:93:8B:28:0C:D6:90:00:9B:9E:FE:B3:71:F3:36
            X509v3 Authority Key Identifier: 
                keyid:0B:7C:6C:99:A8:82:2A:85:C1:1A:09:DF:6A:9D:95:FC:7B:56:B7:9A

            X509v3 Basic Constraints: 
                CA:FALSE
            X509v3 Key Usage: critical
                Digital Signature, Key Encipherment
            X509v3 Extended Key Usage: 
                TLS Web Server Authentication
            ROLE: 
                ..SAS
    Signature Algorithm: sha384WithRSAEncryption
         4b:ac:59:23:cf:7c:8a:ad:22:8a:17:53:22:5c:c4:f9:cd:51:
         4b:40:20:a6:d7:51:a0:53:04:02:f6:55:4b:87:ab:09:2e:0a:
         33:85:95:e1:4f:db:1d:39:47:0a:70:6b:fa:06:18:3b:32:35:
         2d:ce:e2:48:be:3e:db:4e:61:32:b5:7c:e0:22:77:ca:79:5a:
         b8:50:ca:66:c3:4e:e2:2d:f5:bc:07:49:b9:25:52:7e:31:29:
         10:8b:82:41:af:a1:2d:01:dc:c4:b5:9a:18:d7:1d:2b:53:8f:
         b2:f4:64:9b:4f:c0:ef:ce:4d:cd:b5:75:7b:54:69:79:45:e9:
         2c:c5:c7:95:de:2f:32:af:ba:c4:3c:04:f3:dc:fa:d3:05:1f:
         83:bf:ef:7c:76:ac:b8:03:05:21:87:c6:c3:1c:6e:16:d8:47:
         3f:96:55:69:8e:17:02:38:d2:60:dd:cf:f5:96:87:f4:3c:34:
         8a:f4:17:d2:1b:1f:11:c4:b5:c0:3e:b1:c7:cf:81:7f:45:5b:
         78:26:5f:f9:12:90:30:3f:1b:e5:af:0c:22:93:d1:4b:bc:42:
         62:49:68:61:e6:ce:12:23:22:3e:73:92:6b:f6:a3:44:31:b9:
         f3:d3:0e:19:31:e3:4c:b6:1d:11:5f:d6:93:ea:81:50:28:71:
         58:45:c7:9e:ef:41:53:87:cc:2f:c5:21:75:f9:f1:8b:69:c8:
         75:e9:ee:3d:34:02:75:68:d0:1f:d2:17:2b:e2:c7:ca:96:ed:
         50:a8:4a:06:29:86:e8:74:dc:96:f9:4b:79:dd:3c:15:c0:4b:
         b7:eb:92:7f:e9:c7:6c:5a:29:bd:be:74:0c:0f:05:8c:20:6e:
         af:ba:bf:e5:7a:88:1c:2a:e9:7b:4f:da:03:b7:8e:fa:0a:37:
         59:3b:e6:b0:98:87:fb:4a:5c:61:7c:71:ed:61:30:a8:99:ea:
         6a:fe:cd:eb:7e:3c:f1:74:68:92:04:56:6d:21:19:04:55:ef:
         dd:e2:88:72:4d:74:7d:f8:66:26:66:cd:d7:fc:b3:ad:63:2b:
         87:e1:bd:7f:af:0a:c3:d6:1a:18:67:55:cf:bc:7c:60:de:95:
         4a:0f:4c:7b:e2:89:1f:c8:b6:6f:40:d2:85:57:a3:0d:6d:56:
         f9:b8:c8:1b:50:9b:88:f2:48:bd:d0:ac:91:7f:d7:38:43:5c:
         5e:0c:7d:5e:7c:30:37:ba:55:ab:5e:8a:b5:b3:d1:a1:2f:7b:
         ed:33:eb:ac:59:50:c6:c5:96:65:a6:26:da:5f:e5:8b:7c:9c:
         f0:e6:2e:6a:93:f5:ff:89:f3:78:70:fe:5b:e9:1a:a0:a8:e7:
         23:7f:51:72:34:cc:96:b3
-----BEGIN CERTIFICATE-----
MIIFZDCCA0ygAwIBAgIJAP1NxIj6rXRtMA0GCSqGSIb3DQEBDAUAMIGrMQswCQYD
VQQGEwJVUzEdMBsGA1UECAwURGlzdHJpY3Qgb2YgQ29sdW1iaWExEzARBgNVBAcM
Cldhc2hpbmd0b24xIjAgBgNVBAoMGVdpcmVsZXNzIElubm92YXRpb24gRm9ydW0x
IzAhBgNVBAsMGnd3dy53aXJlbGVzc2lubm92YXRpb24ub3JnMR8wHQYDVQQDDBZX
SW5uRm9ydW0gUlNBIFNBUyBDQS0xMB4XDTE2MDgwMjE5MTI0OVoXDTE5MTAzMTE5
MTI0OVowgasxCzAJBgNVBAYTAlVTMR0wGwYDVQQIDBREaXN0cmljdCBvZiBDb2x1
bWJpYTETMBEGA1UEBwwKV2FzaGluZ3RvbjEiMCAGA1UECgwZV2lyZWxlc3MgSW5u
b3ZhdGlvbiBGb3J1bTEjMCEGA1UECwwad3d3LndpcmVsZXNzaW5ub3ZhdGlvbi5v
cmcxHzAdBgNVBAMMFlNBUyBFbmQtRW50aXR5IEV4YW1wbGUwggEiMA0GCSqGSIb3
DQEBAQUAA4IBDwAwggEKAoIBAQDUw5DUEJuwgEgmxcexTwMmkw5+CLeelN+cAE2W
MWz0pmxg07uWZ6soDNN17l3NLZgADADL/v5kiP2LeXaDhIE/zokuz61NRvRARBF/
uVUC65D7a5IgW+EARe+T4Oa9/MvmJCnvRcBP2nheg87kMwNDFQv4i7O5oT1x/Iff
5S65ByA1suBYJ0GCIYzQlm1tglyJdmXdPch69xGUjOl3fUCsRjq64CBROKjUuKEt
1Fo81GyP8xXcM4P5zfAZiMlSPJOGo9QwFjUZoXPewPorO9+xMMB5fujX6qPCaRqa
QK6XKOe0Y9YD+SWjL/fHI9lkkR+Lnep7Z06jEC4gSqlbCVS9AgMBAAGjgYgwgYUw
HQYDVR0OBBYEFPIUCyxbxZOLKAzWkACbnv6zcfM2MB8GA1UdIwQYMBaAFAt8bJmo
giqFwRoJ32qdlfx7VreaMAkGA1UdEwQCMAAwDgYDVR0PAQH/BAQDAgWgMBMGA1Ud
JQQMMAoGCCsGAQUFBwMBMBMGCisGAQQBguwRAQEEBQwDU0FTMA0GCSqGSIb3DQEB
DAUAA4ICAQBLrFkjz3yKrSKKF1MiXMT5zVFLQCCm11GgUwQC9lVLh6sJLgozhZXh
T9sdOUcKcGv6Bhg7MjUtzuJIvj7bTmEytXzgInfKeVq4UMpmw07iLfW8B0m5JVJ+
MSkQi4JBr6EtAdzEtZoY1x0rU4+y9GSbT8Dvzk3NtXV7VGl5ReksxceV3i8yr7rE
PATz3PrTBR+Dv+98dqy4AwUhh8bDHG4W2Ec/llVpjhcCONJg3c/1lof0PDSK9BfS
Gx8RxLXAPrHHz4F/RVt4Jl/5EpAwPxvlrwwik9FLvEJiSWhh5s4SIyI+c5Jr9qNE
Mbnz0w4ZMeNMth0RX9aT6oFQKHFYRcee70FTh8wvxSF1+fGLach16e49NAJ1aNAf
0hcr4sfKlu1QqEoGKYbodNyW+Ut53TwVwEu365J/6cdsWim9vnQMDwWMIG6vur/l
eogcKul7T9oDt476CjdZO+awmIf7SlxhfHHtYTComepq/s3rfjzxdGiSBFZtIRkE
Ve/d4ohyTXR9+GYmZs3X/LOtYyuH4b1/rwrD1hoYZ1XPvHxg3pVKD0x74okfyLZv
QNKFV6MNbVb5uMgbUJuI8ki90KyRf9c4Q1xeDH1efDA3ulWrXoq1s9GhL3vtM+us
WVDGxZZlpibaX+WLfJzw5i5qk/X/ifN4cP5b6RqgqOcjf1FyNMyWsw==
-----END CERTIFICATE-----
