Certificate:
    Data:
        Version: 3 (0x2)
        Serial Number:
            ec:92:f2:f6:e5:ac:f1:67
        Signature Algorithm: sha384WithRSAEncryption
        Issuer: C=US, ST=District of Columbia, L=Washington, O=Wireless Innovation Forum, OU=www.wirelessinnovation.org, CN=WInnForum RSA Root CA-1
        Validity
            Not Before: Jun 30 16:38:00 2016 GMT
            Not After : Jun 27 16:38:00 2031 GMT
        Subject: C=US, ST=District of Columbia, L=Washington, O=Wireless Innovation Forum, OU=www.wirelessinnovation.org, CN=WInnForum RSA Installer CA-1
        Subject Public Key Info:
            Public Key Algorithm: rsaEncryption
            RSA Public Key: (4096 bit)
                Modulus (4096 bit):
                    00:ba:75:d6:53:ad:4d:ef:0e:ec:de:cd:aa:8a:06:
                    43:63:e6:bc:b2:39:3c:15:34:4b:25:e2:46:08:b4:
                    5c:eb:1d:ab:35:33:06:2b:83:77:cb:a9:42:4e:bf:
                    82:94:d7:5a:7d:06:2a:30:9c:ba:26:c5:e1:d1:41:
                    22:42:47:b2:08:65:3e:72:b3:ee:da:fc:a1:88:4f:
                    a4:78:c8:2f:bf:e7:03:1c:c5:8b:a3:74:f8:bb:4b:
                    b0:42:9d:33:00:8e:06:0a:09:f3:b6:40:95:e8:d7:
                    20:a1:be:f9:c2:b5:d0:f8:f5:08:3b:9f:d9:b8:78:
                    aa:fb:e1:8e:8a:65:22:d4:82:7d:4b:1f:f8:50:8b:
                    b0:05:d1:7c:ed:b6:6f:95:3e:8c:98:84:0d:6d:65:
                    df:4a:c8:d3:d6:4d:da:b3:f9:ac:11:05:8e:28:af:
                    9e:5c:da:ae:4e:1e:30:29:4c:7e:27:57:39:e0:dc:
                    6e:ea:51:ad:32:05:d7:c0:8c:e3:5c:ad:d6:c2:c9:
                    72:ca:c0:47:30:b4:40:e1:f3:fd:f9:12:11:46:73:
                    1f:fc:4c:fc:08:2f:57:e4:e7:6f:9f:7e:7f:3c:71:
                    1c:74:30:21:30:83:b0:85:67:1c:6b:b9:8f:6d:c8:
                    8d:46:bf:84:1f:14:5d:7b:5c:06:7a:9e:1a:67:dd:
                    e2:dd:ee:72:16:07:7f:ab:13:ae:0e:cf:4a:f0:84:
                    bb:55:a7:39:f7:f3:fd:cb:21:f7:30:b2:d2:52:24:
                    20:4d:88:78:7c:c7:bd:22:f0:3e:78:71:28:5f:73:
                    94:11:74:ab:42:13:33:f5:d2:02:60:44:05:2a:85:
                    66:5c:fc:c3:8a:24:53:54:23:d7:c4:03:f4:ee:c9:
                    91:ad:e3:6f:cb:93:d4:8e:44:54:b2:44:4e:2d:f8:
                    b2:a0:b0:ce:3d:d1:80:a6:e9:b1:8d:a8:61:56:fc:
                    98:59:f6:ef:30:bf:0d:71:7d:02:bb:6f:44:69:f0:
                    b6:e4:90:cc:95:f3:c0:4f:f8:c3:b1:b3:62:c2:06:
                    8c:d2:88:fe:21:6f:12:d7:e8:1b:b3:27:15:ea:72:
                    0f:0f:5a:75:f2:75:aa:1f:31:81:33:fb:7b:f1:a8:
                    e4:c9:9f:9c:86:8c:3c:30:dd:73:de:f5:db:80:12:
                    3c:d7:bf:a2:ac:c7:de:8a:0f:f7:e1:1a:84:9c:47:
                    ae:2c:ae:d6:cf:53:f1:01:1c:ef:53:bf:8b:20:73:
                    90:a5:bb:2f:8e:05:cc:a2:e3:26:c3:9c:8b:68:a7:
                    c0:b5:95:6d:eb:f7:55:cc:c3:3c:89:41:ea:72:c5:
                    e3:7c:fa:0e:82:cc:c0:cd:dd:98:98:49:6a:fc:3c:
                    b3:38:8b
                Exponent: 65537 (0x10001)
        X509v3 extensions:
            X509v3 Subject Key Identifier: 
                03:B4:0A:47:12:1B:77:6C:85:87:19:38:74:A9:52:1C:A3:C9:D8:05
            X509v3 Authority Key Identifier: 
                keyid:E2:DE:71:95:0A:CB:DF:09:EB:DC:03:02:1F:E3:B8:9A:6C:87:54:88

            X509v3 Basic Constraints: critical
                CA:TRUE, pathlen:0
            X509v3 Key Usage: critical
                Digital Signature, Certificate Sign, CRL Sign
            ROLE: 
                0...INSTALLER..CA
    Signature Algorithm: sha384WithRSAEncryption
        51:83:ac:42:79:ff:a6:0c:e1:39:f9:20:7d:c4:fa:04:ab:28:
        96:e2:f9:bf:cd:33:89:44:11:bf:08:f1:24:cc:49:3c:1d:f3:
        8a:61:d2:7e:dc:f3:16:80:35:08:ca:b6:77:60:3a:eb:e2:f9:
        28:37:d4:a2:0f:53:11:b5:7d:1f:e8:4f:38:34:46:6f:0e:55:
        b3:5a:33:10:98:b0:ea:87:f6:12:94:7c:99:20:aa:63:c1:29:
        40:d6:c1:80:8c:a4:f6:67:22:a9:9c:4e:d6:a2:26:17:03:46:
        87:9a:db:80:b3:a4:d9:c2:0e:ac:73:4b:7a:8d:12:67:41:63:
        bd:e2:e3:23:5a:06:9b:65:1b:7b:9a:4c:69:98:93:81:d7:1d:
        c1:f7:4e:7c:83:65:16:db:49:e8:da:38:20:fd:30:ec:ca:6f:
        b1:70:25:94:83:b0:4a:d1:81:57:e5:38:ee:f2:72:14:fd:e7:
        7a:20:ef:91:5c:22:51:09:1e:c0:e8:81:8a:e0:22:f2:e2:11:
        4e:a4:46:72:b1:ca:48:26:1a:1f:e6:a7:8e:8a:79:68:02:fc:
        b8:7a:fb:95:94:d0:60:a7:29:10:f2:87:8a:e5:d0:2b:a4:f4:
        c1:8b:84:44:03:46:95:f8:23:c1:99:30:09:53:a3:11:83:49:
        ba:d3:b9:75:36:28:72:8c:f9:52:49:0e:f1:af:2f:6b:cf:bb:
        a2:37:35:13:9c:25:17:43:74:86:6a:4e:01:72:1d:7f:1f:99:
        9d:b5:aa:3b:3d:c7:12:75:8a:7f:64:ca:e0:9e:07:77:40:38:
        df:e7:c4:94:57:b5:65:3e:21:10:8b:b3:e3:e2:4d:a3:90:28:
        bb:60:85:1f:1e:e4:b4:5a:02:52:b8:2e:73:94:8d:64:b1:0a:
        f6:b4:74:79:70:a7:8f:c8:d6:19:37:3e:0a:88:0a:8e:af:8e:
        5a:2d:d2:c2:86:f8:a1:62:9b:86:48:f0:06:3e:37:05:04:68:
        a3:84:21:e6:92:be:05:82:89:b3:ca:e0:ba:01:95:f2:7f:c6:
        eb:ce:62:e5:4c:f4:85:92:2e:a1:27:ba:ff:ef:1e:05:60:34:
        37:a8:d8:02:9e:ba:f1:72:3c:49:aa:6f:12:9c:6e:b8:a8:c7:
        07:2e:44:00:41:80:5e:fe:1c:11:64:ae:e3:f9:cb:7d:fa:4b:
        03:8a:40:a3:e7:70:8d:50:0e:87:6f:ae:14:58:e3:8d:b2:fe:
        7a:70:82:5d:9f:37:6b:f2:ba:ae:b4:1f:1e:eb:ee:b8:2f:ef:
        b6:a9:92:55:df:fa:b9:25:9c:3c:fa:f5:9b:63:07:9b:e4:02:
        d6:ce:2d:9e:bf:46:34:74
-----BEGIN CERTIFICATE-----
MIIGazCCBFOgAwIBAgIJAOyS8vblrPFnMA0GCSqGSIb3DQEBDAUAMIGsMQswCQYD
VQQGEwJVUzEdMBsGA1UECAwURGlzdHJpY3Qgb2YgQ29sdW1iaWExEzARBgNVBAcM
Cldhc2hpbmd0b24xIjAgBgNVBAoMGVdpcmVsZXNzIElubm92YXRpb24gRm9ydW0x
IzAhBgNVBAsMGnd3dy53aXJlbGVzc2lubm92YXRpb24ub3JnMSAwHgYDVQQDDBdX
SW5uRm9ydW0gUlNBIFJvb3QgQ0EtMTAeFw0xNjA2MzAxNjM4MDBaFw0zMTA2Mjcx
NjM4MDBaMIGxMQswCQYDVQQGEwJVUzEdMBsGA1UECAwURGlzdHJpY3Qgb2YgQ29s
dW1iaWExEzARBgNVBAcMCldhc2hpbmd0b24xIjAgBgNVBAoMGVdpcmVsZXNzIElu
bm92YXRpb24gRm9ydW0xIzAhBgNVBAsMGnd3dy53aXJlbGVzc2lubm92YXRpb24u
b3JnMSUwIwYDVQQDDBxXSW5uRm9ydW0gUlNBIEluc3RhbGxlciBDQS0xMIICIjAN
BgkqhkiG9w0BAQEFAAOCAg8AMIICCgKCAgEAunXWU61N7w7s3s2qigZDY+a8sjk8
FTRLJeJGCLRc6x2rNTMGK4N3y6lCTr+ClNdafQYqMJy6JsXh0UEiQkeyCGU+crPu
2vyhiE+keMgvv+cDHMWLo3T4u0uwQp0zAI4GCgnztkCV6Ncgob75wrXQ+PUIO5/Z
uHiq++GOimUi1IJ9Sx/4UIuwBdF87bZvlT6MmIQNbWXfSsjT1k3as/msEQWOKK+e
XNquTh4wKUx+J1c54Nxu6lGtMgXXwIzjXK3WwslyysBHMLRA4fP9+RIRRnMf/Ez8
CC9X5Odvn35/PHEcdDAhMIOwhWcca7mPbciNRr+EHxRde1wGep4aZ93i3e5yFgd/
qxOuDs9K8IS7Vac59/P9yyH3MLLSUiQgTYh4fMe9IvA+eHEoX3OUEXSrQhMz9dIC
YEQFKoVmXPzDiiRTVCPXxAP07smRreNvy5PUjkRUskROLfiyoLDOPdGApumxjahh
VvyYWfbvML8NcX0Cu29EafC25JDMlfPAT/jDsbNiwgaM0oj+IW8S1+gbsycV6nIP
D1p18nWqHzGBM/t78ajkyZ+chow8MN1z3vXbgBI817+irMfeig/34RqEnEeuLK7W
z1PxARzvU7+LIHOQpbsvjgXMouMmw5yLaKfAtZVt6/dVzMM8iUHqcsXjfPoOgszA
zd2YmElq/DyzOIsCAwEAAaOBiDCBhTAdBgNVHQ4EFgQUA7QKRxIbd2yFhxk4dKlS
HKPJ2AUwHwYDVR0jBBgwFoAU4t5xlQrL3wnr3AMCH+O4mmyHVIgwEgYDVR0TAQH/
BAgwBgEB/wIBADAOBgNVHQ8BAf8EBAMCAYYwHwYKKwYBBAGC7BEBAQQRMA8MCUlO
U1RBTExFUgwCQ0EwDQYJKoZIhvcNAQEMBQADggIBAFGDrEJ5/6YM4Tn5IH3E+gSr
KJbi+b/NM4lEEb8I8STMSTwd84ph0n7c8xaANQjKtndgOuvi+Sg31KIPUxG1fR/o
Tzg0Rm8OVbNaMxCYsOqH9hKUfJkgqmPBKUDWwYCMpPZnIqmcTtaiJhcDRoea24Cz
pNnCDqxzS3qNEmdBY73i4yNaBptlG3uaTGmYk4HXHcH3TnyDZRbbSejaOCD9MOzK
b7FwJZSDsErRgVflOO7ychT953og75FcIlEJHsDogYrgIvLiEU6kRnKxykgmGh/m
p46KeWgC/Lh6+5WU0GCnKRDyh4rl0Cuk9MGLhEQDRpX4I8GZMAlToxGDSbrTuXU2
KHKM+VJJDvGvL2vPu6I3NROcJRdDdIZqTgFyHX8fmZ21qjs9xxJ1in9kyuCeB3dA
ON/nxJRXtWU+IRCLs+PiTaOQKLtghR8e5LRaAlK4LnOUjWSxCva0dHlwp4/I1hk3
PgqICo6vjlot0sKG+KFim4ZI8AY+NwUEaKOEIeaSvgWCibPK4LoBlfJ/xuvOYuVM
9IWSLqEnuv/vHgVgNDeo2AKeuvFyPEmqbxKcbrioxwcuRABBgF7+HBFkruP5y336
SwOKQKPncI1QDodvrhRY442y/npwgl2fN2vyuq60Hx7r7rgv77apklXf+rklnDz6
9ZtjB5vkAtbOLZ6/RjR0
-----END CERTIFICATE-----
