Certificate:
    Data:
        Version: 3 (0x2)
        Serial Number:
            ec:92:f2:f6:e5:ac:f1:11
        Signature Algorithm: sha384WithRSAEncryption
        Issuer: C=US, ST=District of Columbia, L=Washington, O=Wireless Innovation Forum, OU=www.wirelessinnovation.org, CN=WInnForum RSA Root CA-1
        Validity
            Not Before: Jun 28 01:33:48 2016 GMT
            Not After : Jun 23 01:33:48 2036 GMT
        Subject: C=US, ST=District of Columbia, L=Washington, O=Wireless Innovation Forum, OU=www.wirelessinnovation.org, CN=WInnForum RSA SAS CA-1
        Subject Public Key Info:
            Public Key Algorithm: rsaEncryption
            RSA Public Key: (4096 bit)
                Modulus (4096 bit):
                    00:eb:58:d3:fb:ed:f2:62:cd:eb:07:e5:41:27:ac:
                    2f:00:32:f1:f7:c0:3d:80:68:ef:83:bd:8b:e8:2c:
                    c9:b1:27:28:63:05:3a:bc:b8:7e:2b:46:97:dd:8a:
                    2c:6d:20:61:2e:8b:bb:5f:ea:85:0e:be:97:37:c2:
                    aa:f2:fe:5f:98:9a:6c:c9:4c:b6:f4:d3:9e:79:36:
                    54:76:c9:23:28:ab:78:23:da:7d:cc:d6:26:68:55:
                    e1:0c:4f:3b:fa:45:f5:96:f2:d6:a4:a9:21:67:eb:
                    9d:fb:8e:51:6e:d1:af:35:72:87:29:e4:9a:af:72:
                    bc:c3:e9:ab:e1:a5:02:c6:e6:29:10:f5:2e:20:e0:
                    96:9d:0d:f4:b2:2a:ae:cc:69:bb:7e:39:49:a8:c3:
                    d9:ef:58:cd:62:4f:9f:38:cc:18:0e:bf:49:44:a1:
                    89:8b:a3:70:8c:ba:17:7a:3b:5b:2f:06:e1:75:ca:
                    a5:5b:48:d6:f9:b6:03:38:eb:91:48:b8:2e:cb:67:
                    5d:ce:14:8a:d7:23:ce:46:a5:2b:47:88:71:cc:15:
                    32:23:b7:51:d7:08:be:ce:62:0f:e9:6b:b6:7a:8d:
                    d1:cb:9b:8a:49:2b:5e:2c:28:c2:ba:18:8d:7a:d4:
                    c2:75:24:2f:dd:75:71:59:2a:35:45:3e:49:19:70:
                    ab:b0:43:01:7b:99:ce:1d:1c:03:15:93:72:7a:a4:
                    db:ed:46:8a:1b:8d:f5:e2:0d:d0:cc:aa:75:ef:e6:
                    d5:e3:e9:5a:3d:b7:6c:cc:d9:bb:f3:1f:84:f0:0d:
                    5e:93:ec:d9:0e:b0:79:8f:c5:6e:2d:4f:48:ef:24:
                    c7:b7:c7:67:a3:f6:b4:2e:70:66:b1:85:e6:33:aa:
                    15:3c:24:a1:1a:08:4d:cb:52:82:b2:45:ff:a4:7f:
                    83:2c:31:6a:fa:58:04:ae:a8:96:85:27:ac:ae:04:
                    4a:30:9d:75:de:a3:74:9f:8f:0a:0c:b8:9a:4e:d9:
                    96:32:ea:15:14:a8:64:f3:69:ce:40:a2:ea:50:f1:
                    f1:12:a1:bf:ed:7c:71:bf:99:8a:44:37:a7:5f:62:
                    15:47:e9:7a:35:00:75:d7:c6:69:b9:15:90:54:26:
                    cb:7e:d0:de:76:9a:1e:05:88:98:0f:2e:bb:db:c4:
                    f8:3e:ea:8a:b5:41:ec:25:24:6d:2e:94:a8:3d:ca:
                    ce:f1:10:05:13:b6:3b:85:43:14:29:f4:18:9a:50:
                    31:f7:91:b4:c1:6e:8e:a4:85:d0:8a:9f:84:1e:35:
                    db:c4:21:27:dc:7a:9a:7e:d5:c6:74:f1:a9:8d:ec:
                    9a:b1:6f:9e:03:30:7e:e0:86:e4:dd:55:23:4d:b9:
                    90:cd:b5
                Exponent: 65537 (0x10001)
        X509v3 extensions:
            X509v3 Subject Key Identifier: 
                C3:3B:BE:35:02:A5:82:5F:60:40:68:47:DB:3C:2A:2B:2B:E1:9D:72
            X509v3 Authority Key Identifier: 
                keyid:A7:D9:26:47:E1:5C:F9:4A:3B:F1:FA:5C:6C:99:7E:18:81:53:85:D2

            X509v3 Basic Constraints: critical
                CA:TRUE, pathlen:0
            X509v3 Key Usage: critical
                Digital Signature, Certificate Sign, CRL Sign
            ROLE: 
                ..CA
    Signature Algorithm: sha384WithRSAEncryption
        00:f7:09:1a:4d:ed:db:e5:82:c8:87:3b:8e:27:ec:dd:5e:e0:
        84:fe:cb:ef:94:9a:3c:09:d1:01:ac:75:3c:52:05:f2:1e:d8:
        8c:bd:58:e2:1a:89:a6:f3:d1:ed:78:15:23:36:39:cd:af:05:
        5f:1b:c9:a5:b2:1b:ea:a8:52:a9:40:03:b0:ef:da:58:26:21:
        10:a1:84:dd:dc:9b:29:26:bd:bd:76:c7:a5:9a:13:1e:8e:cd:
        a0:fb:f5:6b:ce:25:5e:4c:a0:f0:a1:7f:fc:0d:19:fd:5f:6a:
        1a:18:e2:69:29:4d:44:99:5f:65:e2:90:00:89:ec:29:ec:52:
        c9:59:dc:18:63:b7:72:c1:8c:9e:15:17:58:8e:ee:7f:b0:c7:
        ef:83:cf:38:98:97:96:25:ad:85:f9:c7:dd:17:e0:e9:0b:85:
        5b:91:95:07:cf:4d:7e:ca:6f:3b:72:c6:16:b9:c0:e4:bb:c5:
        50:eb:23:31:60:04:5c:50:ea:7c:fa:91:32:1d:37:34:9e:c9:
        65:a9:fc:1e:d0:a4:d5:1c:36:8f:43:4d:6d:6f:0c:15:fc:98:
        5e:6e:93:f4:96:50:70:72:3f:5f:87:f6:19:58:f3:2a:58:9a:
        ee:f7:48:5f:c7:9e:82:6e:b1:9a:f4:ae:b9:24:c5:2f:e1:13:
        c0:fc:b4:08:c5:50:8f:95:03:fa:a2:5d:5d:84:a7:94:4e:46:
        04:17:83:26:17:b6:da:88:b9:13:27:bd:70:06:e4:9f:45:60:
        39:3e:74:05:5a:e5:59:36:b0:67:1e:fe:a6:26:5d:23:c1:62:
        43:ca:ed:90:e8:15:9e:68:22:2e:35:fd:66:34:aa:2f:1d:79:
        0b:03:54:10:0c:66:9e:0c:e1:5d:60:06:f1:af:ca:57:7c:f6:
        3f:06:d1:85:7a:5a:85:d9:60:87:3f:00:a2:4b:8b:a2:48:14:
        9d:6c:88:62:c1:3a:5a:55:0a:fa:5c:de:8d:e7:5b:05:0b:95:
        19:76:a3:ce:07:da:f1:96:37:85:2c:52:93:4d:bf:f1:36:91:
        5d:36:e6:90:42:28:59:b5:4b:c9:d8:d7:56:8c:bb:82:71:b1:
        ec:66:7b:88:a3:7c:14:d8:42:98:b3:4d:3b:d5:e9:58:0b:91:
        6c:1c:15:7f:7a:e9:97:e6:25:d8:4a:91:0b:e9:c4:46:66:94:
        97:3e:46:18:18:4a:0c:97:fd:87:cd:c9:2d:d6:82:ac:da:52:
        9b:77:7b:53:b4:f0:19:91:32:39:54:4a:c2:a4:6f:2f:30:be:
        25:00:85:63:87:75:dd:82:89:3d:59:56:b6:1d:c3:5d:1e:c8:
        4b:7c:76:f5:57:f2:66:e9
-----BEGIN CERTIFICATE-----
MIIGVjCCBD6gAwIBAgIJAOyS8vblrPERMA0GCSqGSIb3DQEBDAUAMIGsMQswCQYD
VQQGEwJVUzEdMBsGA1UECAwURGlzdHJpY3Qgb2YgQ29sdW1iaWExEzARBgNVBAcM
Cldhc2hpbmd0b24xIjAgBgNVBAoMGVdpcmVsZXNzIElubm92YXRpb24gRm9ydW0x
IzAhBgNVBAsMGnd3dy53aXJlbGVzc2lubm92YXRpb24ub3JnMSAwHgYDVQQDDBdX
SW5uRm9ydW0gUlNBIFJvb3QgQ0EtMTAeFw0xNjA2MjgwMTMzNDhaFw0zNjA2MjMw
MTMzNDhaMIGrMQswCQYDVQQGEwJVUzEdMBsGA1UECAwURGlzdHJpY3Qgb2YgQ29s
dW1iaWExEzARBgNVBAcMCldhc2hpbmd0b24xIjAgBgNVBAoMGVdpcmVsZXNzIElu
bm92YXRpb24gRm9ydW0xIzAhBgNVBAsMGnd3dy53aXJlbGVzc2lubm92YXRpb24u
b3JnMR8wHQYDVQQDDBZXSW5uRm9ydW0gUlNBIFNBUyBDQS0xMIICIjANBgkqhkiG
9w0BAQEFAAOCAg8AMIICCgKCAgEA61jT++3yYs3rB+VBJ6wvADLx98A9gGjvg72L
6CzJsScoYwU6vLh+K0aX3YosbSBhLou7X+qFDr6XN8Kq8v5fmJpsyUy29NOeeTZU
dskjKKt4I9p9zNYmaFXhDE87+kX1lvLWpKkhZ+ud+45RbtGvNXKHKeSar3K8w+mr
4aUCxuYpEPUuIOCWnQ30siquzGm7fjlJqMPZ71jNYk+fOMwYDr9JRKGJi6NwjLoX
ejtbLwbhdcqlW0jW+bYDOOuRSLguy2ddzhSK1yPORqUrR4hxzBUyI7dR1wi+zmIP
6Wu2eo3Ry5uKSSteLCjCuhiNetTCdSQv3XVxWSo1RT5JGXCrsEMBe5nOHRwDFZNy
eqTb7UaKG4314g3QzKp17+bV4+laPbdszNm78x+E8A1ek+zZDrB5j8VuLU9I7yTH
t8dno/a0LnBmsYXmM6oVPCShGghNy1KCskX/pH+DLDFq+lgErqiWhSesrgRKMJ11
3qN0n48KDLiaTtmWMuoVFKhk82nOQKLqUPHxEqG/7Xxxv5mKRDenX2IVR+l6NQB1
18ZpuRWQVCbLftDedpoeBYiYDy6728T4PuqKtUHsJSRtLpSoPcrO8RAFE7Y7hUMU
KfQYmlAx95G0wW6OpIXQip+EHjXbxCEn3HqaftXGdPGpjeyasW+eAzB+4Ibk3VUj
TbmQzbUCAwEAAaN6MHgwHQYDVR0OBBYEFMM7vjUCpYJfYEBoR9s8Kisr4Z1yMB8G
A1UdIwQYMBaAFKfZJkfhXPlKO/H6XGyZfhiBU4XSMBIGA1UdEwEB/wQIMAYBAf8C
AQAwDgYDVR0PAQH/BAQDAgGGMBIGCisGAQQBguwRAQEEBAwCQ0EwDQYJKoZIhvcN
AQEMBQADggIBAAD3CRpN7dvlgsiHO44n7N1e4IT+y++UmjwJ0QGsdTxSBfIe2Iy9
WOIaiabz0e14FSM2Oc2vBV8byaWyG+qoUqlAA7Dv2lgmIRChhN3cmykmvb12x6Wa
Ex6OzaD79WvOJV5MoPChf/wNGf1fahoY4mkpTUSZX2XikACJ7CnsUslZ3Bhjt3LB
jJ4VF1iO7n+wx++DzziYl5YlrYX5x90X4OkLhVuRlQfPTX7Kbztyxha5wOS7xVDr
IzFgBFxQ6nz6kTIdNzSeyWWp/B7QpNUcNo9DTW1vDBX8mF5uk/SWUHByP1+H9hlY
8ypYmu73SF/HnoJusZr0rrkkxS/hE8D8tAjFUI+VA/qiXV2Ep5RORgQXgyYXttqI
uRMnvXAG5J9FYDk+dAVa5Vk2sGce/qYmXSPBYkPK7ZDoFZ5oIi41/WY0qi8deQsD
VBAMZp4M4V1gBvGvyld89j8G0YV6WoXZYIc/AKJLi6JIFJ1siGLBOlpVCvpc3o3n
WwULlRl2o84H2vGWN4UsUpNNv/E2kV025pBCKFm1S8nY11aMu4Jxsexme4ijfBTY
QpizTTvV6VgLkWwcFX966ZfmJdhKkQvpxEZmlJc+RhgYSgyX/YfNyS3WgqzaUpt3
e1O08BmRMjlUSsKkby8wviUAhWOHdd2CiT1ZVrYdw10eyEt8dvVX8mbp
-----END CERTIFICATE-----
