Certificate:
    Data:
        Version: 3 (0x2)
        Serial Number:
            ec:92:f2:f6:e5:ac:f1:12
        Signature Algorithm: sha384WithRSAEncryption
        Issuer: C=US, ST=District of Columbia, L=Washington, O=Wireless Innovation Forum, OU=www.wirelessinnovation.org, CN=WInnForum RSA SAS CA-1
        Validity
            Not Before: Jun 28 01:33:55 2016 GMT
            Not After : Jun 23 01:33:55 2036 GMT
        Subject: C=US, ST=District of Columbia, L=Washington, O=Wireless Innovation Forum, OU=www.wirelessinnovation.org, CN=SAS End-Entity Example
        Subject Public Key Info:
            Public Key Algorithm: rsaEncryption
            RSA Public Key: (4096 bit)
                Modulus (4096 bit):
                    00:e3:38:2d:d0:9f:0a:85:e2:6b:50:55:17:a4:14:
                    6c:82:c5:40:f5:40:43:0e:a1:31:fa:62:cf:68:9f:
                    d8:c2:61:0e:f4:fc:ff:df:ca:d4:ea:4a:1e:b4:03:
                    3f:f7:ee:0f:4d:5a:a6:a6:06:67:12:6b:f4:8a:7b:
                    3d:bb:e3:c2:2b:44:37:07:2c:0f:fa:59:47:f4:bc:
                    a1:2d:4e:e3:81:a9:95:33:f3:19:d7:ed:63:f4:7f:
                    6c:84:82:3c:9f:06:80:e5:68:25:b9:06:29:f1:c8:
                    52:46:df:29:e2:60:73:de:17:15:58:f3:11:4e:a2:
                    f2:e5:c0:0a:12:8c:53:08:96:80:0b:45:46:29:5c:
                    7a:1f:d0:8c:e5:76:94:a7:f0:16:5f:96:3f:07:6a:
                    54:e6:1f:86:f8:59:66:e3:9d:a2:a4:b2:15:a7:2a:
                    7b:9f:a2:81:90:be:83:0e:ea:69:ed:e8:08:8e:3b:
                    ad:59:3b:35:97:55:6d:62:25:c8:92:38:68:87:b6:
                    d2:e5:05:7b:78:93:89:5f:fd:be:92:77:72:5c:9a:
                    80:85:6a:a7:ba:96:82:0c:1d:6c:e7:5d:ab:f4:8e:
                    f9:6e:10:4f:15:2f:4c:d0:d9:b2:d0:2f:c8:e4:c4:
                    9a:6c:9c:83:f0:10:78:54:ea:c4:63:0e:a3:c4:6b:
                    59:a6:dc:1e:0c:08:2f:1f:b4:1e:86:92:8b:82:c8:
                    ca:d7:af:bd:6a:c6:fd:1c:dd:15:80:c5:45:83:3e:
                    73:13:85:4f:7f:98:e0:5b:1b:19:e6:87:e8:b9:ff:
                    a6:6e:da:79:05:23:d6:1d:ac:69:4c:2a:eb:bd:33:
                    cf:85:c9:ea:51:31:e3:ae:c4:a1:6c:2d:93:c0:5d:
                    c9:1f:64:e6:00:61:bb:eb:8f:f7:aa:0c:76:10:cc:
                    1b:08:60:d0:0d:ab:c5:53:08:25:dd:f6:2d:9e:b4:
                    d2:08:6d:f9:dd:e2:0e:71:9d:1a:f5:f6:b7:cc:09:
                    56:f0:cc:c2:cd:27:47:96:82:62:ea:2d:6b:38:ce:
                    60:00:44:02:98:d8:97:77:be:5d:a4:39:33:17:be:
                    d8:04:87:56:f1:86:c5:20:5d:d7:44:89:15:85:6c:
                    4a:97:10:18:11:f8:1a:a9:24:31:52:03:fe:88:f8:
                    77:a4:04:db:ca:56:c0:c5:da:0a:49:4f:45:44:fd:
                    f0:b2:93:32:be:65:64:c5:71:f3:04:76:be:94:9f:
                    20:be:bc:99:79:cd:30:a6:4c:eb:50:a1:2e:a2:7c:
                    f5:05:ba:58:42:d7:b8:2e:78:a6:0c:34:cd:a1:c3:
                    46:92:a3:4b:0b:80:77:c4:07:f2:de:bf:1a:b1:43:
                    d5:8f:b7
                Exponent: 65537 (0x10001)
        X509v3 extensions:
            X509v3 Subject Key Identifier: 
                D3:1B:A4:D9:64:76:5B:84:F2:75:B6:04:A9:80:D6:25:3B:BB:D3:2D
            X509v3 Authority Key Identifier: 
                keyid:C3:3B:BE:35:02:A5:82:5F:60:40:68:47:DB:3C:2A:2B:2B:E1:9D:72

            X509v3 Basic Constraints: 
                CA:FALSE
            X509v3 Key Usage: critical
                Digital Signature, Key Encipherment
            X509v3 Extended Key Usage: 
                TLS Web Server Authentication
            ROLE: 
                ..SAS
    Signature Algorithm: sha384WithRSAEncryption
        34:55:62:96:b6:9d:48:8f:eb:93:37:68:7e:36:6a:2c:ce:9c:
        98:a0:2f:8c:0e:3b:6d:4b:a8:26:24:9f:0c:a0:65:23:3b:75:
        9e:cb:f3:16:0e:4c:a5:cf:76:83:99:af:ab:74:6e:e0:17:e6:
        32:34:c7:5f:9c:30:b7:f0:b8:d5:ec:8c:e2:ec:f6:25:74:25:
        56:c0:cd:d1:43:5f:f5:c2:86:a9:57:c2:5d:a9:6e:8f:0d:16:
        0d:78:36:97:93:3f:15:3e:d9:4d:09:1a:8d:be:e6:30:89:84:
        6c:00:bf:93:31:ff:6a:b3:35:29:c5:d4:69:85:bf:6e:9d:a7:
        9e:7b:6f:a5:29:60:9a:ee:77:b0:65:bb:31:bc:8c:78:e9:b7:
        7e:18:0c:71:f4:59:54:7f:51:e7:0e:18:fb:eb:0b:81:41:ac:
        64:f6:ba:6a:7a:a9:6d:2a:c3:65:41:5a:bb:45:7d:68:42:38:
        bc:2f:1e:45:57:22:64:17:d0:79:a2:73:ed:07:6d:b8:8e:9c:
        7a:c1:cd:6a:0e:c0:cc:27:bd:cd:93:92:63:f8:3d:06:1f:20:
        98:95:5c:0f:8e:3a:d7:16:7b:ee:79:71:71:de:ec:df:fb:4c:
        df:0d:5c:5f:1d:dd:7f:7a:1d:9c:dd:29:f7:bd:e0:de:2f:53:
        b1:18:8c:38:a7:8b:77:36:6b:9c:69:85:ff:80:7b:48:ef:9b:
        98:4f:0d:82:2f:a2:25:19:b4:96:31:77:4d:81:16:d5:a0:66:
        b9:02:91:d9:f0:c8:91:7d:8b:05:14:e7:40:96:7c:4d:55:c3:
        ef:c2:a2:ba:13:ac:c7:36:64:9a:f9:b1:17:36:f3:f9:c9:e3:
        56:66:52:e9:69:e3:03:54:42:e9:46:03:ba:89:c5:40:49:f0:
        e2:fa:9a:10:3a:ac:22:1f:66:0a:70:b6:9d:3e:b6:44:9b:b2:
        45:4b:3e:e2:33:a3:1a:81:3c:68:9e:f9:da:fd:92:5e:d9:32:
        db:ef:36:f5:41:81:ea:49:64:2c:9a:56:70:6d:ce:5a:85:17:
        37:e0:d2:83:84:c8:31:f4:36:42:66:31:63:1a:8a:df:0f:c6:
        0b:0b:bc:a4:c2:d7:4d:28:8b:ad:d8:c6:b2:da:f0:08:02:1e:
        92:55:f0:17:11:bc:a2:c6:24:b1:00:13:a1:f5:7f:a9:79:92:
        c3:a4:6e:d0:cd:68:db:54:b3:1b:9a:31:05:2e:3f:27:90:cb:
        16:a1:8e:4f:73:49:e7:79:90:32:87:cf:a8:8e:ed:f8:46:91:
        9d:be:86:1e:5f:d5:46:12:ec:fd:8f:18:2a:b1:64:22:9d:0d:
        6e:80:c8:b0:3e:55:07:de
-----BEGIN CERTIFICATE-----
MIIGZDCCBEygAwIBAgIJAOyS8vblrPESMA0GCSqGSIb3DQEBDAUAMIGrMQswCQYD
VQQGEwJVUzEdMBsGA1UECAwURGlzdHJpY3Qgb2YgQ29sdW1iaWExEzARBgNVBAcM
Cldhc2hpbmd0b24xIjAgBgNVBAoMGVdpcmVsZXNzIElubm92YXRpb24gRm9ydW0x
IzAhBgNVBAsMGnd3dy53aXJlbGVzc2lubm92YXRpb24ub3JnMR8wHQYDVQQDDBZX
SW5uRm9ydW0gUlNBIFNBUyBDQS0xMB4XDTE2MDYyODAxMzM1NVoXDTM2MDYyMzAx
MzM1NVowgasxCzAJBgNVBAYTAlVTMR0wGwYDVQQIDBREaXN0cmljdCBvZiBDb2x1
bWJpYTETMBEGA1UEBwwKV2FzaGluZ3RvbjEiMCAGA1UECgwZV2lyZWxlc3MgSW5u
b3ZhdGlvbiBGb3J1bTEjMCEGA1UECwwad3d3LndpcmVsZXNzaW5ub3ZhdGlvbi5v
cmcxHzAdBgNVBAMMFlNBUyBFbmQtRW50aXR5IEV4YW1wbGUwggIiMA0GCSqGSIb3
DQEBAQUAA4ICDwAwggIKAoICAQDjOC3QnwqF4mtQVRekFGyCxUD1QEMOoTH6Ys9o
n9jCYQ70/P/fytTqSh60Az/37g9NWqamBmcSa/SKez2748IrRDcHLA/6WUf0vKEt
TuOBqZUz8xnX7WP0f2yEgjyfBoDlaCW5BinxyFJG3yniYHPeFxVY8xFOovLlwAoS
jFMIloALRUYpXHof0IzldpSn8BZflj8HalTmH4b4WWbjnaKkshWnKnufooGQvoMO
6mnt6AiOO61ZOzWXVW1iJciSOGiHttLlBXt4k4lf/b6Sd3JcmoCFaqe6loIMHWzn
Xav0jvluEE8VL0zQ2bLQL8jkxJpsnIPwEHhU6sRjDqPEa1mm3B4MCC8ftB6GkouC
yMrXr71qxv0c3RWAxUWDPnMThU9/mOBbGxnmh+i5/6Zu2nkFI9YdrGlMKuu9M8+F
yepRMeOuxKFsLZPAXckfZOYAYbvrj/eqDHYQzBsIYNANq8VTCCXd9i2etNIIbfnd
4g5xnRr19rfMCVbwzMLNJ0eWgmLqLWs4zmAARAKY2Jd3vl2kOTMXvtgEh1bxhsUg
XddEiRWFbEqXEBgR+BqpJDFSA/6I+HekBNvKVsDF2gpJT0VE/fCykzK+ZWTFcfME
dr6UnyC+vJl5zTCmTOtQoS6ifPUFulhC17gueKYMNM2hw0aSo0sLgHfEB/Levxqx
Q9WPtwIDAQABo4GIMIGFMB0GA1UdDgQWBBTTG6TZZHZbhPJ1tgSpgNYlO7vTLTAf
BgNVHSMEGDAWgBTDO741AqWCX2BAaEfbPCorK+GdcjAJBgNVHRMEAjAAMA4GA1Ud
DwEB/wQEAwIFoDATBgNVHSUEDDAKBggrBgEFBQcDATATBgorBgEEAYLsEQEBBAUM
A1NBUzANBgkqhkiG9w0BAQwFAAOCAgEANFVilradSI/rkzdofjZqLM6cmKAvjA47
bUuoJiSfDKBlIzt1nsvzFg5Mpc92g5mvq3Ru4BfmMjTHX5wwt/C41eyM4uz2JXQl
VsDN0UNf9cKGqVfCXalujw0WDXg2l5M/FT7ZTQkajb7mMImEbAC/kzH/arM1KcXU
aYW/bp2nnntvpSlgmu53sGW7MbyMeOm3fhgMcfRZVH9R5w4Y++sLgUGsZPa6anqp
bSrDZUFau0V9aEI4vC8eRVciZBfQeaJz7QdtuI6cesHNag7AzCe9zZOSY/g9Bh8g
mJVcD4461xZ77nlxcd7s3/tM3w1cXx3df3odnN0p973g3i9TsRiMOKeLdzZrnGmF
/4B7SO+bmE8Ngi+iJRm0ljF3TYEW1aBmuQKR2fDIkX2LBRTnQJZ8TVXD78KiuhOs
xzZkmvmxFzbz+cnjVmZS6WnjA1RC6UYDuonFQEnw4vqaEDqsIh9mCnC2nT62RJuy
RUs+4jOjGoE8aJ752v2SXtky2+829UGB6klkLJpWcG3OWoUXN+DSg4TIMfQ2QmYx
YxqK3w/GCwu8pMLXTSiLrdjGstrwCAIeklXwFxG8osYksQATofV/qXmSw6Ru0M1o
21SzG5oxBS4/J5DLFqGOT3NJ53mQMofPqI7t+EaRnb6GHl/VRhLs/Y8YKrFkIp0N
boDIsD5VB94=
-----END CERTIFICATE-----
