Certificate:
    Data:
        Version: 3 (0x2)
        Serial Number:
            ec:92:f2:f6:e5:ac:f1:15
        Signature Algorithm: sha384WithRSAEncryption
        Issuer: C=US, ST=District of Columbia, L=Washington, O=Wireless Innovation Forum, OU=www.wirelessinnovation.org, CN=WInnForum RSA Root CA-1
        Validity
            Not Before: Jun 28 01:34:05 2016 GMT
            Not After : Jun 23 01:34:05 2036 GMT
        Subject: C=US, ST=District of Columbia, L=Washington, O=Wireless Innovation Forum, OU=www.wirelessinnovation.org, CN=WInnForum RSA Installer CA-1
        Subject Public Key Info:
            Public Key Algorithm: rsaEncryption
            RSA Public Key: (4096 bit)
                Modulus (4096 bit):
                    00:cc:6a:02:b4:b1:6d:b4:3f:4f:53:d4:03:bb:fe:
                    43:79:bd:96:98:b6:5f:e0:0a:34:99:64:0c:ef:d8:
                    ec:4a:a4:75:38:92:35:0e:d1:32:5e:e2:98:3f:09:
                    c6:2f:e7:f8:b1:ab:58:dd:6c:0c:77:7a:51:71:ab:
                    6f:21:25:8f:ac:1f:49:91:ba:bc:94:32:38:42:3b:
                    b2:0d:15:4c:4c:9e:e0:4e:d9:62:86:a2:21:a6:2b:
                    02:2b:01:62:2f:96:fc:5f:b3:9d:64:2c:2e:07:aa:
                    14:d2:ec:e5:1a:69:43:12:b4:5c:dd:db:38:df:b5:
                    65:ef:53:0b:5f:d6:dd:7b:7d:21:55:8f:8e:d4:5d:
                    98:60:d9:eb:a3:14:ca:33:d4:4b:a3:a4:73:06:a6:
                    0d:78:8c:1b:13:b7:b8:95:19:53:89:69:09:d0:2b:
                    18:63:c6:d0:38:32:c4:86:1c:98:68:ae:3c:ca:f3:
                    c2:28:87:b7:5a:84:13:50:59:c6:cd:1f:ec:0d:7a:
                    7a:a9:9a:ca:56:7e:2e:da:5b:78:6f:2d:df:48:23:
                    5c:84:f7:7b:58:11:5a:42:de:e4:ab:5a:4b:f3:42:
                    ba:bd:25:07:f1:09:94:b6:8d:cd:f2:ca:fc:79:49:
                    27:1f:0a:70:50:f1:de:3d:51:1e:1a:59:4b:84:b8:
                    8e:35:e1:05:33:7a:b2:90:45:ee:50:71:e6:f9:9e:
                    cc:ee:0f:52:78:73:cf:04:cd:6a:8e:37:6c:00:9f:
                    4c:2b:20:68:3d:88:4c:a0:ee:e5:0a:4b:9a:9f:79:
                    a5:82:b8:cf:59:ad:b9:a8:d4:af:93:a1:da:b4:57:
                    20:9d:a8:24:75:20:21:31:1b:66:05:f8:52:f2:8a:
                    7b:c9:e3:73:d4:61:4b:ee:05:d7:92:f8:de:61:1a:
                    06:6e:c6:d7:13:94:dd:61:be:02:ea:b6:d0:ac:5c:
                    15:e8:d2:39:bd:64:27:a9:9f:db:5c:0b:e2:67:85:
                    d2:63:c0:7a:93:50:59:a4:2c:2e:3a:bb:71:17:f9:
                    7e:e7:03:6f:94:75:01:84:01:fb:a0:d0:a5:fc:08:
                    b5:27:ab:00:2b:06:b5:65:b8:e8:94:18:94:8f:d0:
                    2b:ba:67:05:a3:c3:60:e9:04:29:1d:d2:2d:4b:a5:
                    01:b3:62:42:19:49:e6:5e:cb:bc:26:41:ba:7b:95:
                    70:c5:02:30:45:e2:e6:01:e2:a4:61:8e:db:14:7e:
                    e7:db:0f:03:31:bd:75:50:23:09:d2:9f:97:e9:c6:
                    1f:f1:a4:dc:96:08:ea:42:1a:31:78:55:ec:59:da:
                    75:fc:06:9c:81:d5:bf:d4:ff:53:3c:2a:bf:d2:7a:
                    c6:3b:55
                Exponent: 65537 (0x10001)
        X509v3 extensions:
            X509v3 Subject Key Identifier: 
                64:2B:8E:63:81:66:AB:C6:A1:DC:27:B6:D8:7F:90:28:D9:24:04:D0
            X509v3 Authority Key Identifier: 
                keyid:A7:D9:26:47:E1:5C:F9:4A:3B:F1:FA:5C:6C:99:7E:18:81:53:85:D2

            X509v3 Basic Constraints: critical
                CA:TRUE, pathlen:0
            X509v3 Key Usage: critical
                Digital Signature, Certificate Sign, CRL Sign
            ROLE: 
                ..CA
    Signature Algorithm: sha384WithRSAEncryption
        99:35:f1:30:b7:99:d8:03:ee:39:0f:0a:1c:a1:b6:e4:0c:d6:
        27:64:1e:3c:59:f8:93:59:2c:81:5e:fc:b4:a6:8b:1d:5f:52:
        c4:8d:6e:d6:b7:9d:54:ef:0b:c7:e5:4a:c5:64:35:af:fd:e1:
        af:61:bc:bc:d3:25:78:4e:a1:48:62:1d:91:3b:7a:31:8c:7f:
        a9:ef:1d:72:b0:41:39:8b:03:4f:f3:cd:b6:eb:ab:71:1a:1c:
        6a:fb:e5:56:a3:17:8b:c1:fb:2a:12:84:56:fe:8f:27:29:41:
        71:e4:74:21:65:e7:3d:35:4b:a7:53:aa:e0:3e:94:26:54:6b:
        b1:7f:d3:f6:6a:be:c1:d0:f7:c7:10:93:2b:b8:b4:d1:9f:5d:
        6d:d4:14:04:cd:70:e4:e0:5b:79:5b:d2:8d:db:61:d7:d8:70:
        3a:4e:ab:12:c3:cf:a5:84:08:7c:ff:40:65:f8:e9:df:7c:7c:
        e1:58:83:82:13:1a:10:b0:2f:b0:e4:76:b9:f0:a3:74:aa:16:
        64:50:ef:46:44:7d:da:f7:64:e7:9c:85:c8:f5:1b:79:ab:02:
        27:74:34:56:e2:76:25:25:d3:db:d5:2b:38:91:3a:44:fd:1f:
        36:2e:f0:48:67:ef:0c:14:2b:52:07:a7:a5:7a:91:6f:3b:fd:
        85:11:c4:08:28:d3:03:e5:a2:c2:01:af:e1:c2:09:bb:a0:a9:
        9b:c9:54:cb:61:5a:9b:76:3f:97:b2:43:d8:2a:4b:f6:c7:f3:
        5e:29:ea:d2:9d:dd:ec:0d:53:38:a9:24:df:6f:7f:fc:f8:9c:
        84:8b:b4:f5:55:72:9b:b2:3e:0c:26:d2:ab:57:ff:c2:bd:da:
        ca:ab:e7:c1:41:19:f6:04:d4:05:77:95:52:44:98:8b:b6:2c:
        49:4f:b7:45:ec:1b:56:63:8b:b1:00:e8:a1:8c:9f:71:42:22:
        93:1e:eb:bf:47:66:96:f8:1f:92:f0:b4:dc:cf:dd:e6:e9:4c:
        d5:da:ae:b2:8e:50:67:15:43:2b:ca:99:de:1e:64:23:50:39:
        8e:bf:bf:2d:ec:26:89:76:0e:8d:55:f1:73:1d:9b:32:e1:82:
        1a:08:79:1f:d2:35:4b:fb:d8:7c:fa:b8:7b:82:c0:42:2b:29:
        30:fb:1b:e3:5f:d5:b6:15:74:c2:bf:13:87:1c:5b:d6:27:f6:
        85:d1:b0:54:6d:10:f6:17:93:ff:a9:5a:e7:08:50:60:08:71:
        28:e4:6e:ce:54:5b:d9:6f:b3:f5:47:99:d2:ee:46:5e:2c:7f:
        35:6d:a5:ba:7a:32:e9:8c:71:fa:9a:54:3c:84:a1:e8:8c:5c:
        2a:21:19:e7:96:6c:a3:4e
-----BEGIN CERTIFICATE-----
MIIGXDCCBESgAwIBAgIJAOyS8vblrPEVMA0GCSqGSIb3DQEBDAUAMIGsMQswCQYD
VQQGEwJVUzEdMBsGA1UECAwURGlzdHJpY3Qgb2YgQ29sdW1iaWExEzARBgNVBAcM
Cldhc2hpbmd0b24xIjAgBgNVBAoMGVdpcmVsZXNzIElubm92YXRpb24gRm9ydW0x
IzAhBgNVBAsMGnd3dy53aXJlbGVzc2lubm92YXRpb24ub3JnMSAwHgYDVQQDDBdX
SW5uRm9ydW0gUlNBIFJvb3QgQ0EtMTAeFw0xNjA2MjgwMTM0MDVaFw0zNjA2MjMw
MTM0MDVaMIGxMQswCQYDVQQGEwJVUzEdMBsGA1UECAwURGlzdHJpY3Qgb2YgQ29s
dW1iaWExEzARBgNVBAcMCldhc2hpbmd0b24xIjAgBgNVBAoMGVdpcmVsZXNzIElu
bm92YXRpb24gRm9ydW0xIzAhBgNVBAsMGnd3dy53aXJlbGVzc2lubm92YXRpb24u
b3JnMSUwIwYDVQQDDBxXSW5uRm9ydW0gUlNBIEluc3RhbGxlciBDQS0xMIICIjAN
BgkqhkiG9w0BAQEFAAOCAg8AMIICCgKCAgEAzGoCtLFttD9PU9QDu/5Deb2WmLZf
4Ao0mWQM79jsSqR1OJI1DtEyXuKYPwnGL+f4satY3WwMd3pRcatvISWPrB9Jkbq8
lDI4QjuyDRVMTJ7gTtlihqIhpisCKwFiL5b8X7OdZCwuB6oU0uzlGmlDErRc3ds4
37Vl71MLX9bde30hVY+O1F2YYNnroxTKM9RLo6RzBqYNeIwbE7e4lRlTiWkJ0CsY
Y8bQODLEhhyYaK48yvPCKIe3WoQTUFnGzR/sDXp6qZrKVn4u2lt4by3fSCNchPd7
WBFaQt7kq1pL80K6vSUH8QmUto3N8sr8eUknHwpwUPHePVEeGllLhLiONeEFM3qy
kEXuUHHm+Z7M7g9SeHPPBM1qjjdsAJ9MKyBoPYhMoO7lCkuan3mlgrjPWa25qNSv
k6HatFcgnagkdSAhMRtmBfhS8op7yeNz1GFL7gXXkvjeYRoGbsbXE5TdYb4C6rbQ
rFwV6NI5vWQnqZ/bXAviZ4XSY8B6k1BZpCwuOrtxF/l+5wNvlHUBhAH7oNCl/Ai1
J6sAKwa1ZbjolBiUj9ArumcFo8Ng6QQpHdItS6UBs2JCGUnmXsu8JkG6e5VwxQIw
ReLmAeKkYY7bFH7n2w8DMb11UCMJ0p+X6cYf8aTclgjqQhoxeFXsWdp1/AacgdW/
1P9TPCq/0nrGO1UCAwEAAaN6MHgwHQYDVR0OBBYEFGQrjmOBZqvGodwntth/kCjZ
JATQMB8GA1UdIwQYMBaAFKfZJkfhXPlKO/H6XGyZfhiBU4XSMBIGA1UdEwEB/wQI
MAYBAf8CAQAwDgYDVR0PAQH/BAQDAgGGMBIGCisGAQQBguwRAQEEBAwCQ0EwDQYJ
KoZIhvcNAQEMBQADggIBAJk18TC3mdgD7jkPChyhtuQM1idkHjxZ+JNZLIFe/LSm
ix1fUsSNbta3nVTvC8flSsVkNa/94a9hvLzTJXhOoUhiHZE7ejGMf6nvHXKwQTmL
A0/zzbbrq3EaHGr75VajF4vB+yoShFb+jycpQXHkdCFl5z01S6dTquA+lCZUa7F/
0/ZqvsHQ98cQkyu4tNGfXW3UFATNcOTgW3lb0o3bYdfYcDpOqxLDz6WECHz/QGX4
6d98fOFYg4ITGhCwL7Dkdrnwo3SqFmRQ70ZEfdr3ZOechcj1G3mrAid0NFbidiUl
09vVKziROkT9HzYu8Ehn7wwUK1IHp6V6kW87/YURxAgo0wPlosIBr+HCCbugqZvJ
VMthWpt2P5eyQ9gqS/bH814p6tKd3ewNUzipJN9vf/z4nISLtPVVcpuyPgwm0qtX
/8K92sqr58FBGfYE1AV3lVJEmIu2LElPt0XsG1Zji7EA6KGMn3FCIpMe679HZpb4
H5LwtNzP3ebpTNXarrKOUGcVQyvKmd4eZCNQOY6/vy3sJol2Do1V8XMdmzLhghoI
eR/SNUv72Hz6uHuCwEIrKTD7G+Nf1bYVdMK/E4ccW9Yn9oXRsFRtEPYXk/+pWucI
UGAIcSjkbs5UW9lvs/VHmdLuRl4sfzVtpbp6MumMcfqaVDyEoeiMXCohGeeWbKNO
-----END CERTIFICATE-----
