Certificate:
    Data:
        Version: 3 (0x2)
        Serial Number:
            ec:92:f2:f6:e5:ac:f1:16
        Signature Algorithm: sha384WithRSAEncryption
        Issuer: C=US, ST=District of Columbia, L=Washington, O=Wireless Innovation Forum, OU=www.wirelessinnovation.org, CN=WInnForum RSA Installer CA-1
        Validity
            Not Before: Jun 28 01:34:06 2016 GMT
            Not After : Jun 23 01:34:06 2036 GMT
        Subject: C=US, ST=District of Columbia, L=Washington, O=Wireless Innovation Forum, OU=www.wirelessinnovation.org, CN=Installer End-Entity Example
        Subject Public Key Info:
            Public Key Algorithm: rsaEncryption
            RSA Public Key: (4096 bit)
                Modulus (4096 bit):
                    00:c7:eb:20:5c:a2:cb:57:06:a6:68:68:b4:59:c0:
                    35:1e:5e:47:df:d9:7c:89:28:d0:97:b0:fe:65:d0:
                    0d:ec:87:77:25:bd:2b:53:ab:c1:77:d9:59:5e:4c:
                    74:cf:1d:f4:3a:e9:86:b4:c6:58:63:63:a3:80:01:
                    6d:b1:dd:09:23:a7:0a:45:96:ba:f2:d5:64:55:c4:
                    10:0d:8f:55:a2:0c:ae:6b:29:46:54:82:cf:32:a9:
                    39:32:7b:d8:cf:a1:06:ca:32:d5:d2:83:0b:1d:05:
                    07:d9:82:de:d6:4e:7d:af:7c:29:67:eb:73:fd:23:
                    9e:7e:e8:ba:bb:47:57:a7:ef:71:8a:2c:0e:2e:cf:
                    7a:7d:9b:9e:7f:8e:12:75:fd:ce:72:0c:87:91:f9:
                    fa:7d:1e:b8:ca:09:39:29:65:a2:0b:01:35:6f:c3:
                    30:1f:b5:f8:84:65:47:43:da:cc:ac:85:e3:4b:15:
                    5d:9d:90:bb:3c:3f:ab:ef:a1:93:9c:19:e3:01:17:
                    a2:82:ed:19:be:71:3c:e3:00:2b:37:b5:d6:9a:f8:
                    02:f1:1a:89:e3:32:1e:47:8c:0b:d8:aa:9a:42:6b:
                    d0:53:77:95:90:f7:0a:7c:54:f6:fd:e1:d7:b6:0d:
                    e7:77:6e:47:f7:75:ee:f1:b8:fb:c8:90:0e:ad:e8:
                    8d:ac:4b:2e:2b:f6:36:11:a5:f1:50:e1:df:2c:49:
                    7c:74:d2:f4:09:59:5a:d1:62:16:12:57:92:fc:20:
                    9e:67:c2:72:34:65:8c:f9:21:72:10:f4:d3:de:67:
                    b4:b9:78:68:ea:7c:5a:94:3e:af:f3:35:f0:55:63:
                    9e:fe:28:80:37:a8:71:0b:b8:cf:bf:0f:62:99:b6:
                    af:78:cc:47:53:b0:40:e1:49:65:6a:bf:17:84:2d:
                    35:df:71:17:18:92:f5:96:75:a2:ca:58:40:9d:e1:
                    29:97:94:23:a5:4b:c9:26:de:62:28:7d:be:6a:c7:
                    15:39:fe:91:c4:0d:36:55:f5:37:8e:0f:f7:29:3b:
                    6c:b4:ca:1c:e5:42:a0:ee:1a:18:0e:2a:1e:63:dd:
                    d3:d6:0b:61:40:c8:6a:e3:36:c1:92:3d:92:ca:bc:
                    cc:3a:11:ba:57:5c:99:0c:59:8f:9c:fa:71:eb:78:
                    82:15:7e:d3:fe:90:dc:e5:58:37:1e:6f:22:a8:83:
                    4e:52:9e:32:84:23:dd:45:4a:1f:6b:4e:fb:43:78:
                    35:f6:1e:a7:9f:13:0a:10:c8:61:65:73:0c:19:d4:
                    e3:2d:89:a3:3a:7f:86:d4:98:e5:cb:b7:06:74:f8:
                    29:a8:ea:d5:23:80:55:ec:a5:4f:ee:b3:fb:06:14:
                    65:2f:df
                Exponent: 65537 (0x10001)
        X509v3 extensions:
            X509v3 Subject Key Identifier: 
                9C:33:5F:78:7C:72:60:6B:FD:63:45:55:75:DD:D5:10:E1:0D:6E:9F
            X509v3 Authority Key Identifier: 
                keyid:64:2B:8E:63:81:66:AB:C6:A1:DC:27:B6:D8:7F:90:28:D9:24:04:D0

            X509v3 Basic Constraints: 
                CA:FALSE
            X509v3 Key Usage: critical
                Digital Signature, Key Encipherment
            X509v3 Extended Key Usage: 
                TLS Web Server Authentication
            ROLE: 
                ..INSTALLER
    Signature Algorithm: sha384WithRSAEncryption
        8c:51:d8:1e:87:56:f9:b9:91:cb:10:43:9b:30:56:ae:31:b0:
        1e:0a:b6:1d:ee:30:03:d1:f4:e4:3b:b5:a7:fe:44:6b:df:08:
        ac:51:66:ef:fc:76:5d:4b:01:92:1f:d2:55:d2:e9:cf:98:3b:
        85:f8:86:50:7a:1d:d9:d8:a9:ab:35:93:7b:6d:19:0e:63:0d:
        eb:41:b1:d0:a9:db:d1:fd:e1:c0:9a:0a:50:07:4f:56:c5:02:
        6a:07:7d:f2:c2:0e:35:19:60:73:cb:0a:ec:2f:28:4b:e4:f4:
        83:12:4b:a5:fb:07:b6:5f:7f:0f:74:8b:34:b8:be:f5:f6:f7:
        2c:7d:4e:1e:dd:a1:7d:26:2b:65:96:6f:78:fe:c6:19:2a:07:
        32:fb:81:00:15:89:b2:1a:d6:2f:de:f0:10:ca:ee:db:d9:f6:
        41:f4:6f:5e:d9:96:18:1a:92:b6:bd:c9:ed:f2:c9:83:e2:2a:
        49:a7:d1:69:b5:8b:eb:c6:98:ed:0b:24:c5:0d:fc:b3:97:66:
        00:6f:d2:31:1b:c9:43:b0:ba:4c:ba:a1:4f:9c:12:1a:28:a2:
        b1:60:28:94:59:c9:02:78:18:7d:0c:ca:48:14:c7:51:46:4e:
        9d:49:18:7e:5a:d4:69:f8:52:4e:14:bd:17:46:99:d3:e6:68:
        c4:0e:99:b4:c0:41:3f:88:a9:23:c2:1e:b9:a1:9a:b1:5b:b8:
        58:10:d2:13:e0:df:76:c8:ed:eb:b3:1b:06:4c:6f:a2:5a:ab:
        3b:d0:37:97:24:20:9c:67:72:fe:14:9a:d9:2c:73:df:a2:75:
        2b:d4:6d:24:0b:5d:ee:af:c3:b3:2b:79:91:8a:2c:3d:91:16:
        7b:fd:13:e3:59:4e:cc:da:2b:ad:c8:b8:10:fa:0d:3f:d4:0b:
        7a:9d:71:2b:0b:70:cd:c9:7b:30:1d:d5:2d:02:b6:e7:dd:4a:
        b5:2f:dc:67:c0:c6:8d:8d:12:ae:44:cb:97:6c:6f:18:81:06:
        2a:ba:88:c4:b9:0c:70:15:f1:f0:79:f0:6c:94:59:3d:18:10:
        34:31:b8:ca:49:ff:d2:44:3a:75:e5:16:71:16:4f:5c:29:e6:
        91:14:2a:b4:65:cd:d4:52:ec:f8:ea:81:b1:c1:18:60:3e:5e:
        29:64:6d:d6:2d:69:ad:76:f6:78:39:ff:bb:12:0f:a2:a3:e7:
        91:e5:f8:1d:e0:c3:ed:ab:61:41:fe:e4:79:a7:e6:55:a8:a6:
        b9:a3:1b:37:7c:a2:cf:73:63:95:47:13:85:9a:11:e2:7f:f9:
        8f:c5:02:01:a9:68:b5:d3:c6:6f:f8:4c:b7:22:e8:59:e8:f8:
        7e:1a:2a:2a:75:36:12:de
-----BEGIN CERTIFICATE-----
MIIGdjCCBF6gAwIBAgIJAOyS8vblrPEWMA0GCSqGSIb3DQEBDAUAMIGxMQswCQYD
VQQGEwJVUzEdMBsGA1UECAwURGlzdHJpY3Qgb2YgQ29sdW1iaWExEzARBgNVBAcM
Cldhc2hpbmd0b24xIjAgBgNVBAoMGVdpcmVsZXNzIElubm92YXRpb24gRm9ydW0x
IzAhBgNVBAsMGnd3dy53aXJlbGVzc2lubm92YXRpb24ub3JnMSUwIwYDVQQDDBxX
SW5uRm9ydW0gUlNBIEluc3RhbGxlciBDQS0xMB4XDTE2MDYyODAxMzQwNloXDTM2
MDYyMzAxMzQwNlowgbExCzAJBgNVBAYTAlVTMR0wGwYDVQQIDBREaXN0cmljdCBv
ZiBDb2x1bWJpYTETMBEGA1UEBwwKV2FzaGluZ3RvbjEiMCAGA1UECgwZV2lyZWxl
c3MgSW5ub3ZhdGlvbiBGb3J1bTEjMCEGA1UECwwad3d3LndpcmVsZXNzaW5ub3Zh
dGlvbi5vcmcxJTAjBgNVBAMMHEluc3RhbGxlciBFbmQtRW50aXR5IEV4YW1wbGUw
ggIiMA0GCSqGSIb3DQEBAQUAA4ICDwAwggIKAoICAQDH6yBcostXBqZoaLRZwDUe
Xkff2XyJKNCXsP5l0A3sh3clvStTq8F32VleTHTPHfQ66Ya0xlhjY6OAAW2x3Qkj
pwpFlrry1WRVxBANj1WiDK5rKUZUgs8yqTkye9jPoQbKMtXSgwsdBQfZgt7WTn2v
fCln63P9I55+6Lq7R1en73GKLA4uz3p9m55/jhJ1/c5yDIeR+fp9HrjKCTkpZaIL
ATVvwzAftfiEZUdD2sysheNLFV2dkLs8P6vvoZOcGeMBF6KC7Rm+cTzjACs3tdaa
+ALxGonjMh5HjAvYqppCa9BTd5WQ9wp8VPb94de2Ded3bkf3de7xuPvIkA6t6I2s
Sy4r9jYRpfFQ4d8sSXx00vQJWVrRYhYSV5L8IJ5nwnI0ZYz5IXIQ9NPeZ7S5eGjq
fFqUPq/zNfBVY57+KIA3qHELuM+/D2KZtq94zEdTsEDhSWVqvxeELTXfcRcYkvWW
daLKWECd4SmXlCOlS8km3mIofb5qxxU5/pHEDTZV9TeOD/cpO2y0yhzlQqDuGhgO
Kh5j3dPWC2FAyGrjNsGSPZLKvMw6EbpXXJkMWY+c+nHreIIVftP+kNzlWDcebyKo
g05SnjKEI91FSh9rTvtDeDX2HqefEwoQyGFlcwwZ1OMtiaM6f4bUmOXLtwZ0+Cmo
6tUjgFXspU/us/sGFGUv3wIDAQABo4GOMIGLMB0GA1UdDgQWBBScM194fHJga/1j
RVV13dUQ4Q1unzAfBgNVHSMEGDAWgBRkK45jgWarxqHcJ7bYf5Ao2SQE0DAJBgNV
HRMEAjAAMA4GA1UdDwEB/wQEAwIFoDATBgNVHSUEDDAKBggrBgEFBQcDATAZBgor
BgEEAYLsEQEBBAsMCUlOU1RBTExFUjANBgkqhkiG9w0BAQwFAAOCAgEAjFHYHodW
+bmRyxBDmzBWrjGwHgq2He4wA9H05Du1p/5Ea98IrFFm7/x2XUsBkh/SVdLpz5g7
hfiGUHod2dipqzWTe20ZDmMN60Gx0Knb0f3hwJoKUAdPVsUCagd98sIONRlgc8sK
7C8oS+T0gxJLpfsHtl9/D3SLNLi+9fb3LH1OHt2hfSYrZZZveP7GGSoHMvuBABWJ
shrWL97wEMru29n2QfRvXtmWGBqStr3J7fLJg+IqSafRabWL68aY7QskxQ38s5dm
AG/SMRvJQ7C6TLqhT5wSGiiisWAolFnJAngYfQzKSBTHUUZOnUkYflrUafhSThS9
F0aZ0+ZoxA6ZtMBBP4ipI8IeuaGasVu4WBDSE+Dfdsjt67MbBkxvolqrO9A3lyQg
nGdy/hSa2Sxz36J1K9RtJAtd7q/Dsyt5kYosPZEWe/0T41lOzNorrci4EPoNP9QL
ep1xKwtwzcl7MB3VLQK2591KtS/cZ8DGjY0SrkTLl2xvGIEGKrqIxLkMcBXx8Hnw
bJRZPRgQNDG4ykn/0kQ6deUWcRZPXCnmkRQqtGXN1FLs+OqBscEYYD5eKWRt1i1p
rXb2eDn/uxIPoqPnkeX4HeDD7athQf7keafmVaimuaMbN3yiz3NjlUcThZoR4n/5
j8UCAalotdPGb/hMtyLoWej4fhoqKnU2Et4=
-----END CERTIFICATE-----
