Certificate:
    Data:
        Version: 3 (0x2)
        Serial Number:
            ec:92:f2:f6:e5:ac:f1:17
        Signature Algorithm: sha384WithRSAEncryption
        Issuer: C=US, ST=District of Columbia, L=Washington, O=Wireless Innovation Forum, OU=www.wirelessinnovation.org, CN=WInnForum RSA Root CA-1
        Validity
            Not Before: Jun 28 01:34:13 2016 GMT
            Not After : Jun 23 01:34:13 2036 GMT
        Subject: C=US, ST=District of Columbia, L=Washington, O=Wireless Innovation Forum, OU=www.wirelessinnovation.org, CN=WInnForum RSA PAL CA-1
        Subject Public Key Info:
            Public Key Algorithm: rsaEncryption
            RSA Public Key: (4096 bit)
                Modulus (4096 bit):
                    00:d3:42:d6:ea:5c:8c:3c:b0:ae:da:ff:18:4e:f0:
                    98:c8:7f:8b:44:36:a5:01:d6:af:a1:27:ed:46:e1:
                    7d:2a:66:ec:ec:42:d4:87:36:c9:c0:31:72:ba:b5:
                    9e:79:a9:f2:ad:2b:65:cd:9e:c0:8f:87:ba:8c:54:
                    74:fd:67:0b:8c:e6:da:64:62:68:25:dd:2e:13:11:
                    d5:b1:b1:1c:92:6d:db:df:97:cf:16:1b:ad:26:2e:
                    2c:88:b4:2d:92:91:cc:32:26:5d:5a:15:5c:bc:40:
                    b8:2b:03:32:56:a8:c1:07:bc:2d:96:ab:da:5f:d3:
                    6d:25:2d:88:67:e4:c1:77:e5:fc:c4:fc:8d:e4:04:
                    b6:08:f3:e3:6b:11:bf:e6:0f:27:cd:7f:53:7d:1a:
                    bc:eb:7d:d4:b9:58:0d:ea:5a:af:7c:42:ae:2c:3a:
                    d4:fb:53:00:76:25:2b:a6:9a:7e:07:99:e2:e0:b1:
                    c3:1d:a1:99:b4:ff:13:7d:41:67:fa:ed:3d:5b:fc:
                    7b:0d:51:09:78:f3:f6:c3:f6:4e:a0:bd:7e:8c:04:
                    67:91:fc:11:6a:2a:32:ea:77:24:02:81:50:35:1d:
                    44:17:eb:02:63:70:6a:bb:be:81:93:22:a6:3d:2a:
                    37:9a:ec:2c:d7:25:0d:9e:ce:b3:cb:40:96:e7:25:
                    57:b9:f3:9a:b7:66:44:7f:b6:22:7a:52:da:00:11:
                    d2:09:48:52:d1:89:bd:09:55:27:8c:d3:ad:66:34:
                    69:ee:23:86:fe:04:91:bd:4f:4d:1b:b9:c0:c1:78:
                    f8:b9:4b:94:0e:bb:ca:0b:e9:d0:c7:79:d6:12:be:
                    76:15:87:b4:53:4a:5e:ef:aa:c4:95:88:7f:25:64:
                    43:61:60:8e:c6:78:91:ae:ee:4f:69:88:be:c8:0b:
                    15:0e:27:41:be:4a:18:36:80:72:fe:da:7a:ee:55:
                    79:23:6c:69:f4:70:d3:68:a8:51:23:e0:e5:3e:d8:
                    2e:e5:d7:68:2d:a9:e3:6c:e8:3b:53:8a:1b:1c:58:
                    b6:b5:63:78:61:2b:43:49:bc:a5:93:3d:82:15:17:
                    10:dd:e0:e5:89:cf:e2:d7:aa:20:43:7b:29:d8:7d:
                    ff:1c:f9:ed:ad:e6:45:e0:8a:40:99:12:35:a0:04:
                    69:05:95:f2:c9:84:32:c0:9f:bf:a6:6e:30:27:fc:
                    d4:00:54:ed:9a:c0:34:42:ac:2c:8e:14:6b:e0:44:
                    0c:d4:14:23:3c:c1:24:0c:f6:92:ba:c0:b9:bf:4b:
                    de:04:d6:80:c8:10:64:b0:09:2f:b2:ce:22:3a:6e:
                    e0:f1:af:91:57:b6:dc:a4:91:c7:26:45:2d:31:9c:
                    52:a4:b3
                Exponent: 65537 (0x10001)
        X509v3 extensions:
            X509v3 Subject Key Identifier: 
                53:99:42:68:99:7B:31:7B:DF:3E:F6:5D:57:E1:70:6F:F0:D9:F4:7D
            X509v3 Authority Key Identifier: 
                keyid:A7:D9:26:47:E1:5C:F9:4A:3B:F1:FA:5C:6C:99:7E:18:81:53:85:D2

            X509v3 Basic Constraints: critical
                CA:TRUE, pathlen:0
            X509v3 Key Usage: critical
                Digital Signature, Certificate Sign, CRL Sign
            ROLE: 
                ..CA
    Signature Algorithm: sha384WithRSAEncryption
        9e:dd:de:ac:eb:80:cf:ea:24:37:a9:ed:67:ac:6f:b5:16:24:
        03:4a:57:e7:5a:38:cb:9f:60:0f:04:aa:f7:9b:11:ed:2d:f2:
        a9:f3:32:60:f7:e4:4e:6d:39:6b:35:a4:56:00:a8:de:64:98:
        33:78:94:1a:8e:f0:56:51:b3:6e:34:f7:3f:78:0f:54:36:ed:
        7a:de:aa:40:9b:1a:63:8f:33:5f:1a:95:aa:d1:6f:2d:21:41:
        3f:f8:c1:0f:64:b7:82:9c:35:28:cb:64:df:0f:d3:f5:df:be:
        a1:55:dc:ea:b5:16:de:c6:fe:26:9d:13:70:88:83:73:7e:71:
        2f:e6:2a:b1:a3:2d:ec:e6:1c:2c:33:fd:a2:96:30:70:84:b2:
        73:f2:cd:08:ea:73:b9:37:11:f7:b4:30:6d:92:44:b7:1a:65:
        1c:d2:04:59:b9:2f:7b:57:fd:e4:62:0f:ce:b5:f2:ce:f8:9a:
        42:a2:7f:8d:28:6a:55:fb:b4:ae:05:46:39:af:d6:2b:8a:8c:
        a2:9d:1d:95:cf:65:e4:b5:78:75:df:21:ac:72:f7:26:94:be:
        36:e9:ff:45:b9:8f:99:b1:88:24:09:d7:7b:27:8c:3d:1e:86:
        8a:7a:14:bd:c1:3e:fc:92:29:b7:af:66:29:0d:28:c4:09:c1:
        6e:0d:a4:fc:79:cc:a6:bd:4a:3e:64:ba:0f:95:47:48:2c:e0:
        1b:dd:03:07:ac:f6:74:4e:50:61:80:b2:d5:70:b2:08:8b:1e:
        73:f6:d5:e3:f7:c5:d0:cd:cb:30:c4:2f:d7:1a:ec:c0:82:57:
        d4:16:3a:8d:42:4c:17:41:6a:b0:63:45:ef:5b:93:15:f2:32:
        16:4e:a5:f4:94:f9:56:e1:5b:34:2e:47:33:4a:90:54:bc:58:
        80:95:12:05:0f:ce:13:40:69:95:74:ff:29:1e:a2:38:b2:89:
        cd:f6:d6:81:e9:3d:84:f8:06:f6:25:04:76:3c:53:8d:21:d9:
        62:0d:87:0f:93:f3:60:52:58:3a:39:f1:71:1c:63:ed:ed:5a:
        e8:b1:7b:36:8b:9a:05:6a:15:35:42:b6:bf:c7:e5:e1:2f:93:
        39:f9:65:5f:8c:8a:5f:6e:d3:88:f6:d0:b0:0c:7c:d1:4e:ab:
        f9:db:37:6c:f3:7b:b2:8d:91:43:49:8e:0d:6e:58:55:ac:83:
        9c:44:31:ac:56:7a:18:ff:b0:fe:dc:ca:a7:8a:f7:b5:df:fc:
        b8:e9:2b:96:87:6f:e5:c1:d4:5d:29:49:46:2f:47:5a:c1:c7:
        5d:85:22:ac:38:78:b7:1e:54:38:37:9c:fb:ae:16:87:88:42:
        7a:7c:41:d2:b3:26:62:f3
-----BEGIN CERTIFICATE-----
MIIGVjCCBD6gAwIBAgIJAOyS8vblrPEXMA0GCSqGSIb3DQEBDAUAMIGsMQswCQYD
VQQGEwJVUzEdMBsGA1UECAwURGlzdHJpY3Qgb2YgQ29sdW1iaWExEzARBgNVBAcM
Cldhc2hpbmd0b24xIjAgBgNVBAoMGVdpcmVsZXNzIElubm92YXRpb24gRm9ydW0x
IzAhBgNVBAsMGnd3dy53aXJlbGVzc2lubm92YXRpb24ub3JnMSAwHgYDVQQDDBdX
SW5uRm9ydW0gUlNBIFJvb3QgQ0EtMTAeFw0xNjA2MjgwMTM0MTNaFw0zNjA2MjMw
MTM0MTNaMIGrMQswCQYDVQQGEwJVUzEdMBsGA1UECAwURGlzdHJpY3Qgb2YgQ29s
dW1iaWExEzARBgNVBAcMCldhc2hpbmd0b24xIjAgBgNVBAoMGVdpcmVsZXNzIElu
bm92YXRpb24gRm9ydW0xIzAhBgNVBAsMGnd3dy53aXJlbGVzc2lubm92YXRpb24u
b3JnMR8wHQYDVQQDDBZXSW5uRm9ydW0gUlNBIFBBTCBDQS0xMIICIjANBgkqhkiG
9w0BAQEFAAOCAg8AMIICCgKCAgEA00LW6lyMPLCu2v8YTvCYyH+LRDalAdavoSft
RuF9Kmbs7ELUhzbJwDFyurWeeanyrStlzZ7Aj4e6jFR0/WcLjObaZGJoJd0uExHV
sbEckm3b35fPFhutJi4siLQtkpHMMiZdWhVcvEC4KwMyVqjBB7wtlqvaX9NtJS2I
Z+TBd+X8xPyN5AS2CPPjaxG/5g8nzX9TfRq8633UuVgN6lqvfEKuLDrU+1MAdiUr
ppp+B5ni4LHDHaGZtP8TfUFn+u09W/x7DVEJePP2w/ZOoL1+jARnkfwRaioy6nck
AoFQNR1EF+sCY3Bqu76BkyKmPSo3muws1yUNns6zy0CW5yVXufOat2ZEf7YielLa
ABHSCUhS0Ym9CVUnjNOtZjRp7iOG/gSRvU9NG7nAwXj4uUuUDrvKC+nQx3nWEr52
FYe0U0pe76rElYh/JWRDYWCOxniRru5PaYi+yAsVDidBvkoYNoBy/tp67lV5I2xp
9HDTaKhRI+DlPtgu5ddoLanjbOg7U4obHFi2tWN4YStDSbylkz2CFRcQ3eDlic/i
16ogQ3sp2H3/HPntreZF4IpAmRI1oARpBZXyyYQywJ+/pm4wJ/zUAFTtmsA0Qqws
jhRr4EQM1BQjPMEkDPaSusC5v0veBNaAyBBksAkvss4iOm7g8a+RV7bcpJHHJkUt
MZxSpLMCAwEAAaN6MHgwHQYDVR0OBBYEFFOZQmiZezF73z72XVfhcG/w2fR9MB8G
A1UdIwQYMBaAFKfZJkfhXPlKO/H6XGyZfhiBU4XSMBIGA1UdEwEB/wQIMAYBAf8C
AQAwDgYDVR0PAQH/BAQDAgGGMBIGCisGAQQBguwRAQEEBAwCQ0EwDQYJKoZIhvcN
AQEMBQADggIBAJ7d3qzrgM/qJDep7Wesb7UWJANKV+daOMufYA8EqvebEe0t8qnz
MmD35E5tOWs1pFYAqN5kmDN4lBqO8FZRs2409z94D1Q27XreqkCbGmOPM18alarR
by0hQT/4wQ9kt4KcNSjLZN8P0/XfvqFV3Oq1Ft7G/iadE3CIg3N+cS/mKrGjLezm
HCwz/aKWMHCEsnPyzQjqc7k3Efe0MG2SRLcaZRzSBFm5L3tX/eRiD8618s74mkKi
f40oalX7tK4FRjmv1iuKjKKdHZXPZeS1eHXfIaxy9yaUvjbp/0W5j5mxiCQJ13sn
jD0ehop6FL3BPvySKbevZikNKMQJwW4NpPx5zKa9Sj5kug+VR0gs4BvdAwes9nRO
UGGAstVwsgiLHnP21eP3xdDNyzDEL9ca7MCCV9QWOo1CTBdBarBjRe9bkxXyMhZO
pfSU+VbhWzQuRzNKkFS8WICVEgUPzhNAaZV0/ykeojiyic321oHpPYT4BvYlBHY8
U40h2WINhw+T82BSWDo58XEcY+3tWuixezaLmgVqFTVCtr/H5eEvkzn5ZV+Mil9u
04j20LAMfNFOq/nbN2zze7KNkUNJjg1uWFWsg5xEMaxWehj/sP7cyqeK97Xf/Ljp
K5aHb+XB1F0pSUYvR1rBx12FIqw4eLceVDg3nPuuFoeIQnp8QdKzJmLz
-----END CERTIFICATE-----
