Certificate:
    Data:
        Version: 3 (0x2)
        Serial Number:
            ec:92:f2:f6:e5:ac:f1:18
        Signature Algorithm: sha384WithRSAEncryption
        Issuer: C=US, ST=District of Columbia, L=Washington, O=Wireless Innovation Forum, OU=www.wirelessinnovation.org, CN=WInnForum RSA PAL CA-1
        Validity
            Not Before: Jun 28 01:34:18 2016 GMT
            Not After : Jun 23 01:34:18 2036 GMT
        Subject: C=US, ST=District of Columbia, L=Washington, O=Wireless Innovation Forum, OU=www.wirelessinnovation.org, CN=PAL End-Entity Example
        Subject Public Key Info:
            Public Key Algorithm: rsaEncryption
            RSA Public Key: (4096 bit)
                Modulus (4096 bit):
                    00:c0:3a:dc:9f:fe:28:f4:80:cc:35:64:02:95:77:
                    90:c0:49:e4:ce:67:f3:c8:cd:a3:88:40:09:bc:a4:
                    db:af:93:11:d9:e1:57:5e:25:45:5b:3f:6b:ed:87:
                    0e:37:a6:df:22:43:69:1d:a3:6d:26:66:55:c1:de:
                    45:63:d6:42:a1:5d:9f:d7:37:5c:8f:69:9b:a1:16:
                    09:4f:d3:68:45:cd:37:a6:0c:a2:8c:14:fc:be:89:
                    24:63:37:aa:8b:cc:db:0d:bd:6e:28:74:20:24:0d:
                    65:e8:3c:e2:af:62:74:7c:5f:f4:89:4b:ca:66:66:
                    02:ff:f1:17:40:b0:0b:2f:ca:d7:06:f8:3d:33:6f:
                    1c:5c:70:cf:10:3a:d3:8f:94:b8:5e:d5:7b:bf:b8:
                    95:22:a5:31:e5:6d:42:7d:15:c2:1d:6c:2b:9f:7c:
                    43:91:b1:38:a6:ae:87:83:e4:7a:f0:91:17:4c:ef:
                    cc:e6:1d:d7:d4:58:15:bf:75:c8:30:1a:33:68:fa:
                    f9:4c:64:c0:66:22:d0:54:be:08:56:34:2b:fa:bb:
                    12:e4:f9:ab:fc:33:78:5f:4c:26:d6:ca:45:4c:62:
                    57:5f:3f:f1:0e:b7:75:32:04:7e:33:37:8a:59:8d:
                    17:78:0f:4a:8e:4e:c0:13:c3:55:6c:e4:fb:b2:e8:
                    2b:b0:53:9c:29:b9:8c:48:b2:96:cb:b3:05:1e:25:
                    69:ce:68:77:21:7d:e3:a1:be:0c:67:c8:53:8a:1e:
                    5b:01:9c:b5:03:f5:88:79:a1:ba:72:87:7b:1e:84:
                    89:27:0c:07:d5:f5:33:4a:32:e5:93:67:e4:c6:ab:
                    46:b6:89:34:ff:90:3c:62:3d:69:45:a5:2a:40:04:
                    b1:a0:52:7f:d1:08:75:6a:06:ec:9f:fc:22:ce:75:
                    f2:91:34:84:a0:14:8e:3f:0f:c4:97:6d:85:55:df:
                    e0:e2:ad:cb:b3:69:a2:51:8c:c7:fb:81:e2:0e:c1:
                    61:20:43:cd:1f:f7:cd:01:91:82:fd:13:31:01:27:
                    dc:e3:4b:82:d8:98:35:53:50:7b:73:90:c6:94:32:
                    f0:27:fa:7d:bd:d2:15:c5:74:e5:87:00:df:14:66:
                    13:be:78:eb:05:ec:30:35:c5:4e:d3:b3:05:81:02:
                    51:d7:f3:88:5e:d2:f8:a3:6b:e2:29:d9:77:7f:0e:
                    4d:62:1d:3a:0c:26:8b:01:9f:22:92:7a:98:9c:6b:
                    6e:35:6a:22:c7:59:cd:de:d3:36:22:57:7b:2f:86:
                    ee:e7:1b:70:0b:a1:48:3a:34:5d:54:da:fc:25:59:
                    dc:e1:4a:e9:6f:dd:91:76:45:82:b5:68:38:2d:e0:
                    17:a1:db
                Exponent: 65537 (0x10001)
        X509v3 extensions:
            X509v3 Subject Key Identifier: 
                54:21:A6:B9:48:21:C5:95:9B:65:60:98:C3:E4:5A:FC:5E:FE:89:D9
            X509v3 Authority Key Identifier: 
                keyid:53:99:42:68:99:7B:31:7B:DF:3E:F6:5D:57:E1:70:6F:F0:D9:F4:7D

            X509v3 Basic Constraints: 
                CA:FALSE
            X509v3 Key Usage: critical
                Digital Signature, Key Encipherment
            X509v3 Extended Key Usage: 
                TLS Web Server Authentication
            ROLE: 
                ..PAL
    Signature Algorithm: sha384WithRSAEncryption
        ce:f1:5d:cf:b6:6a:d7:bd:9a:a8:03:6f:ee:14:6e:2d:28:bf:
        18:be:54:32:4a:12:b3:9b:ee:50:f4:5b:97:e8:2a:b3:8b:8c:
        78:88:9e:44:b2:6c:45:29:91:43:94:e0:41:a2:3e:47:8e:19:
        20:aa:d9:61:48:57:84:2e:9a:3e:f4:e6:43:6f:86:63:24:0f:
        5d:a2:60:b6:42:28:57:ae:bf:7b:e0:69:df:15:95:b5:7e:c2:
        9b:49:d1:3b:74:c2:77:7f:93:00:58:23:bb:b7:90:be:66:3a:
        61:30:f2:47:cc:d9:0a:b3:ea:8a:1a:28:3f:00:2c:94:ea:27:
        8a:a3:b1:7e:c2:61:03:3e:16:6b:c9:02:2d:4b:7d:4e:92:94:
        3c:24:e5:d4:93:cc:f3:5d:14:aa:eb:c7:8e:22:98:b8:9a:18:
        65:39:6b:77:ed:b8:62:3e:76:9b:c1:38:12:87:45:e7:60:3a:
        d7:ac:d1:82:a6:6e:d6:64:11:28:7a:6c:e5:df:e6:96:b4:6c:
        f8:a1:e1:aa:21:f2:c3:78:60:dd:ca:7b:e6:b1:fb:22:bf:1b:
        a5:fd:38:90:75:23:48:fa:a4:a9:88:be:5f:d8:03:51:99:8e:
        1d:b8:b3:f8:78:b8:3c:8e:50:1e:c9:6c:d4:c5:f3:48:6b:d3:
        44:63:4a:56:c7:9f:03:10:73:bf:48:0e:86:de:45:8a:cc:22:
        56:36:fc:8f:20:73:f0:8f:22:cb:37:c7:8d:e9:e5:6f:e5:9a:
        ab:8e:b0:e7:2e:94:fe:35:1d:a5:c9:7d:bb:9c:0a:65:83:bc:
        43:41:77:bd:e0:a0:43:77:a1:59:1e:50:f5:e0:6e:69:cd:34:
        51:14:e7:3b:f3:f4:c9:6a:25:d4:5c:19:1b:4b:6a:70:b8:42:
        fc:56:7a:de:97:1d:22:a7:1b:c4:b9:0b:ad:c3:6c:67:77:58:
        97:f6:48:f0:e7:2e:66:22:e6:62:1b:86:85:18:df:50:4f:f7:
        9e:c4:8e:04:fa:9a:69:ca:62:84:55:e5:15:db:d0:7e:da:8d:
        f4:5f:aa:35:45:cb:c5:83:79:0e:bb:8f:d2:71:6f:80:5c:45:
        01:21:8a:12:8d:bd:08:ba:6d:0d:92:14:a3:09:9c:d4:b1:86:
        22:58:73:7e:83:d0:42:d4:bf:ad:a3:3c:df:c4:19:6b:fc:dd:
        b6:41:2c:19:61:c7:8f:c7:aa:28:1f:0f:48:c9:21:8d:d1:d7:
        07:35:b3:14:d3:66:a9:41:07:0f:08:84:fd:06:fb:9d:62:98:
        f3:5f:3b:a9:3f:2f:42:4d:1d:de:13:43:be:cb:9e:f9:19:1f:
        1c:3a:77:6f:49:f2:bd:25
-----BEGIN CERTIFICATE-----
MIIGZDCCBEygAwIBAgIJAOyS8vblrPEYMA0GCSqGSIb3DQEBDAUAMIGrMQswCQYD
VQQGEwJVUzEdMBsGA1UECAwURGlzdHJpY3Qgb2YgQ29sdW1iaWExEzARBgNVBAcM
Cldhc2hpbmd0b24xIjAgBgNVBAoMGVdpcmVsZXNzIElubm92YXRpb24gRm9ydW0x
IzAhBgNVBAsMGnd3dy53aXJlbGVzc2lubm92YXRpb24ub3JnMR8wHQYDVQQDDBZX
SW5uRm9ydW0gUlNBIFBBTCBDQS0xMB4XDTE2MDYyODAxMzQxOFoXDTM2MDYyMzAx
MzQxOFowgasxCzAJBgNVBAYTAlVTMR0wGwYDVQQIDBREaXN0cmljdCBvZiBDb2x1
bWJpYTETMBEGA1UEBwwKV2FzaGluZ3RvbjEiMCAGA1UECgwZV2lyZWxlc3MgSW5u
b3ZhdGlvbiBGb3J1bTEjMCEGA1UECwwad3d3LndpcmVsZXNzaW5ub3ZhdGlvbi5v
cmcxHzAdBgNVBAMMFlBBTCBFbmQtRW50aXR5IEV4YW1wbGUwggIiMA0GCSqGSIb3
DQEBAQUAA4ICDwAwggIKAoICAQDAOtyf/ij0gMw1ZAKVd5DASeTOZ/PIzaOIQAm8
pNuvkxHZ4VdeJUVbP2vthw43pt8iQ2kdo20mZlXB3kVj1kKhXZ/XN1yPaZuhFglP
02hFzTemDKKMFPy+iSRjN6qLzNsNvW4odCAkDWXoPOKvYnR8X/SJS8pmZgL/8RdA
sAsvytcG+D0zbxxccM8QOtOPlLhe1Xu/uJUipTHlbUJ9FcIdbCuffEORsTimroeD
5HrwkRdM78zmHdfUWBW/dcgwGjNo+vlMZMBmItBUvghWNCv6uxLk+av8M3hfTCbW
ykVMYldfP/EOt3UyBH4zN4pZjRd4D0qOTsATw1Vs5Puy6CuwU5wpuYxIspbLswUe
JWnOaHchfeOhvgxnyFOKHlsBnLUD9Yh5obpyh3sehIknDAfV9TNKMuWTZ+TGq0a2
iTT/kDxiPWlFpSpABLGgUn/RCHVqBuyf/CLOdfKRNISgFI4/D8SXbYVV3+Dircuz
aaJRjMf7geIOwWEgQ80f980BkYL9EzEBJ9zjS4LYmDVTUHtzkMaUMvAn+n290hXF
dOWHAN8UZhO+eOsF7DA1xU7TswWBAlHX84he0vija+Ip2Xd/Dk1iHToMJosBnyKS
epica241aiLHWc3e0zYiV3svhu7nG3ALoUg6NF1U2vwlWdzhSulv3ZF2RYK1aDgt
4Beh2wIDAQABo4GIMIGFMB0GA1UdDgQWBBRUIaa5SCHFlZtlYJjD5Fr8Xv6J2TAf
BgNVHSMEGDAWgBRTmUJomXsxe98+9l1X4XBv8Nn0fTAJBgNVHRMEAjAAMA4GA1Ud
DwEB/wQEAwIFoDATBgNVHSUEDDAKBggrBgEFBQcDATATBgorBgEEAYLsEQEBBAUM
A1BBTDANBgkqhkiG9w0BAQwFAAOCAgEAzvFdz7Zq172aqANv7hRuLSi/GL5UMkoS
s5vuUPRbl+gqs4uMeIieRLJsRSmRQ5TgQaI+R44ZIKrZYUhXhC6aPvTmQ2+GYyQP
XaJgtkIoV66/e+Bp3xWVtX7Cm0nRO3TCd3+TAFgju7eQvmY6YTDyR8zZCrPqihoo
PwAslOoniqOxfsJhAz4Wa8kCLUt9TpKUPCTl1JPM810UquvHjiKYuJoYZTlrd+24
Yj52m8E4EodF52A616zRgqZu1mQRKHps5d/mlrRs+KHhqiHyw3hg3cp75rH7Ir8b
pf04kHUjSPqkqYi+X9gDUZmOHbiz+Hi4PI5QHsls1MXzSGvTRGNKVsefAxBzv0gO
ht5FiswiVjb8jyBz8I8iyzfHjenlb+Waq46w5y6U/jUdpcl9u5wKZYO8Q0F3veCg
Q3ehWR5Q9eBuac00URTnO/P0yWol1FwZG0tqcLhC/FZ63pcdIqcbxLkLrcNsZ3dY
l/ZI8OcuZiLmYhuGhRjfUE/3nsSOBPqaacpihFXlFdvQftqN9F+qNUXLxYN5DruP
0nFvgFxFASGKEo29CLptDZIUowmc1LGGIlhzfoPQQtS/raM838QZa/zdtkEsGWHH
j8eqKB8PSMkhjdHXBzWzFNNmqUEHDwiE/Qb7nWKY8187qT8vQk0d3hNDvsue+Rkf
HDp3b0nyvSU=
-----END CERTIFICATE-----
