Certificate:
    Data:
        Version: 3 (0x2)
        Serial Number:
            ec:92:f2:f6:e5:ac:f1:13
        Signature Algorithm: sha384WithRSAEncryption
        Issuer: C=US, ST=District of Columbia, L=Washington, O=Wireless Innovation Forum, OU=www.wirelessinnovation.org, CN=WInnForum RSA Root CA-1
        Validity
            Not Before: Jun 28 01:33:58 2016 GMT
            Not After : Jun 23 01:33:58 2036 GMT
        Subject: C=US, ST=District of Columbia, L=Washington, O=Wireless Innovation Forum, OU=www.wirelessinnovation.org, CN=WInnForum RSA Operator CA-1
        Subject Public Key Info:
            Public Key Algorithm: rsaEncryption
            RSA Public Key: (4096 bit)
                Modulus (4096 bit):
                    00:a9:33:9e:f4:1d:76:65:4a:d6:aa:68:34:79:41:
                    e7:e4:82:d7:fc:2d:af:1c:20:5b:bc:e5:32:59:89:
                    dd:44:3b:ce:0a:49:ee:c3:fc:71:07:e7:89:5f:62:
                    16:dc:22:33:eb:9d:00:bb:b5:7d:39:22:c1:6c:97:
                    5e:56:b4:88:8e:9b:6a:44:e0:68:f9:26:a5:0c:e7:
                    79:2c:73:87:e3:3b:bc:e3:9e:79:e3:a1:2c:84:b5:
                    11:8e:28:60:85:fa:4d:c4:3b:b1:57:9f:8e:12:02:
                    12:71:65:08:49:02:48:d8:d8:d4:76:98:e4:b8:ae:
                    30:16:39:38:13:a3:89:34:25:e1:92:7d:1e:7e:d5:
                    18:85:ea:9e:af:f9:ea:66:40:d6:a3:85:3f:8c:d9:
                    7c:a4:59:5a:65:40:6b:81:48:a7:6a:b9:28:dd:95:
                    52:e6:9a:c7:a8:ea:75:d4:75:8e:0a:37:da:0d:32:
                    7e:2e:f0:0d:7c:5b:1b:05:3c:e7:ae:10:91:47:74:
                    03:f1:d5:45:f3:a0:63:b4:d8:4f:a2:74:f0:25:57:
                    e4:c8:e6:3f:19:c2:ce:96:4c:27:50:85:04:16:23:
                    fa:46:d5:3f:9b:96:cc:a7:3a:e2:26:b1:cf:4b:fe:
                    0d:3e:08:05:fc:99:91:87:4e:88:47:c4:19:83:e2:
                    43:53:58:ed:97:52:1e:53:f5:b5:51:7a:2e:7d:d5:
                    3b:35:5f:7b:24:66:3a:70:52:b2:c0:2e:e6:b0:07:
                    95:e9:be:b2:4a:2d:e7:60:d2:46:ea:f7:9f:ba:24:
                    99:f3:77:72:64:09:f7:06:13:22:07:48:14:cf:27:
                    5d:e9:a0:7a:40:c6:91:cd:c1:d1:62:71:a6:e6:52:
                    cf:68:a4:a8:23:a9:54:50:f7:82:b6:b5:10:1f:ce:
                    f0:ad:01:47:74:8e:bc:56:6f:25:e4:d7:15:ef:63:
                    e5:a5:2e:83:84:3b:9a:a7:bb:07:93:0d:e6:3c:7a:
                    37:13:59:2f:0d:75:f0:ae:19:e0:75:31:93:5d:03:
                    8a:f5:fd:3c:c6:0a:98:31:9a:5c:b4:c4:02:fa:4a:
                    a3:3e:00:98:fd:ae:f9:5a:22:a7:06:ef:f4:58:b3:
                    b6:2e:e5:2c:c2:29:04:1c:ad:f8:d9:de:64:0c:85:
                    81:45:90:4e:f6:66:d4:2f:b7:2e:b6:08:68:8f:80:
                    be:9e:4c:7a:e6:b3:21:de:48:6a:22:c5:b1:c2:b2:
                    70:bf:22:49:c8:21:59:b4:fb:5f:7d:10:04:7c:70:
                    a7:ef:75:67:3a:40:e3:7c:59:2d:95:4e:14:6e:37:
                    46:e2:d6:99:68:6d:06:48:ad:28:fd:f4:cd:03:bd:
                    75:4b:5b
                Exponent: 65537 (0x10001)
        X509v3 extensions:
            X509v3 Subject Key Identifier: 
                48:41:23:F5:9C:E3:EF:CC:8C:F6:EB:A1:1C:86:91:23:69:40:F9:3E
            X509v3 Authority Key Identifier: 
                keyid:A7:D9:26:47:E1:5C:F9:4A:3B:F1:FA:5C:6C:99:7E:18:81:53:85:D2

            X509v3 Basic Constraints: critical
                CA:TRUE, pathlen:0
            X509v3 Key Usage: critical
                Digital Signature, Certificate Sign, CRL Sign
            ROLE: 
                ..CA
    Signature Algorithm: sha384WithRSAEncryption
        59:3d:02:0e:72:7a:98:60:5a:76:0d:30:d5:c1:f0:94:9f:d7:
        2b:e2:74:2b:7d:b9:08:be:23:eb:0f:4a:73:9a:38:bf:16:a7:
        dc:1f:5d:60:df:90:c1:15:60:97:5f:64:3f:d4:84:32:66:f2:
        1f:c0:61:61:fb:14:61:82:7e:d3:e8:d7:d1:1c:c4:8b:84:86:
        31:6c:a7:ce:8a:db:aa:d6:cf:f3:fa:eb:81:f0:a1:33:dc:a6:
        57:04:f5:14:d6:b3:cf:ea:1a:16:9b:ff:92:e9:80:5b:19:11:
        d2:c1:6b:7a:85:e4:6c:f5:b6:60:8e:46:21:24:25:f1:f3:84:
        6d:79:ca:08:1f:f2:2c:74:88:38:22:be:9c:91:6f:34:86:db:
        dc:cb:79:c3:78:26:e0:dd:1c:62:f8:4b:db:92:b5:66:4a:b8:
        fc:9f:0a:b8:77:cc:fb:d2:49:00:c2:5e:aa:b0:ea:aa:1c:7e:
        81:78:23:32:53:de:d8:0f:9a:66:04:ec:9c:10:f6:df:1f:06:
        30:0d:0b:e5:6d:ad:63:45:02:03:96:58:d0:0a:27:fc:8d:90:
        d1:c7:40:6f:7a:02:b9:f6:2d:08:02:50:e0:2a:6b:7f:f7:45:
        21:81:b6:f5:5d:b8:2d:4e:e8:f4:b4:47:5f:15:06:42:b0:47:
        44:77:e8:97:e8:14:d2:06:65:66:e1:66:c3:13:13:91:b7:2b:
        d0:5e:80:41:b3:b7:05:9b:88:49:99:ec:bc:e3:ef:23:18:44:
        cb:45:eb:d8:e1:31:f0:14:6a:00:01:31:76:5f:05:de:d2:23:
        df:76:86:f1:7a:74:08:56:71:ff:e0:6f:85:25:65:a7:e0:b2:
        92:ab:ec:9a:0c:72:03:25:21:43:30:e0:bd:89:d5:b0:0a:a5:
        8c:d2:aa:ca:00:63:1f:86:51:13:45:e5:9c:0b:1f:e2:0b:bc:
        1e:89:7f:b1:7b:a4:83:10:d6:89:51:b3:5e:68:0b:de:d5:71:
        10:14:a1:c2:c3:94:bf:ed:b1:b5:59:a2:c0:a9:8d:a0:29:6b:
        23:f0:13:cc:b8:e0:2b:8a:99:63:9c:49:85:aa:0c:1a:25:11:
        fa:92:bc:3e:b7:eb:94:29:7c:d6:25:f8:7e:d8:34:9f:a3:68:
        56:fa:00:4e:af:5f:f9:2b:6c:6b:79:41:04:b5:3c:1a:c5:38:
        09:8a:07:7b:dd:ca:e9:d2:46:c4:29:60:2a:ea:d9:02:4a:51:
        f0:b6:d9:f1:29:81:4d:e5:e9:a0:2c:4d:ef:32:5e:12:ff:93:
        7c:30:c5:18:50:df:fa:e5:8b:f5:48:e3:f4:85:bf:a3:a2:f4:
        a0:24:18:a5:b4:5c:24:48
-----BEGIN CERTIFICATE-----
MIIGWzCCBEOgAwIBAgIJAOyS8vblrPETMA0GCSqGSIb3DQEBDAUAMIGsMQswCQYD
VQQGEwJVUzEdMBsGA1UECAwURGlzdHJpY3Qgb2YgQ29sdW1iaWExEzARBgNVBAcM
Cldhc2hpbmd0b24xIjAgBgNVBAoMGVdpcmVsZXNzIElubm92YXRpb24gRm9ydW0x
IzAhBgNVBAsMGnd3dy53aXJlbGVzc2lubm92YXRpb24ub3JnMSAwHgYDVQQDDBdX
SW5uRm9ydW0gUlNBIFJvb3QgQ0EtMTAeFw0xNjA2MjgwMTMzNThaFw0zNjA2MjMw
MTMzNThaMIGwMQswCQYDVQQGEwJVUzEdMBsGA1UECAwURGlzdHJpY3Qgb2YgQ29s
dW1iaWExEzARBgNVBAcMCldhc2hpbmd0b24xIjAgBgNVBAoMGVdpcmVsZXNzIElu
bm92YXRpb24gRm9ydW0xIzAhBgNVBAsMGnd3dy53aXJlbGVzc2lubm92YXRpb24u
b3JnMSQwIgYDVQQDDBtXSW5uRm9ydW0gUlNBIE9wZXJhdG9yIENBLTEwggIiMA0G
CSqGSIb3DQEBAQUAA4ICDwAwggIKAoICAQCpM570HXZlStaqaDR5Qefkgtf8La8c
IFu85TJZid1EO84KSe7D/HEH54lfYhbcIjPrnQC7tX05IsFsl15WtIiOm2pE4Gj5
JqUM53ksc4fjO7zjnnnjoSyEtRGOKGCF+k3EO7FXn44SAhJxZQhJAkjY2NR2mOS4
rjAWOTgTo4k0JeGSfR5+1RiF6p6v+epmQNajhT+M2XykWVplQGuBSKdquSjdlVLm
mseo6nXUdY4KN9oNMn4u8A18WxsFPOeuEJFHdAPx1UXzoGO02E+idPAlV+TI5j8Z
ws6WTCdQhQQWI/pG1T+blsynOuImsc9L/g0+CAX8mZGHTohHxBmD4kNTWO2XUh5T
9bVRei591Ts1X3skZjpwUrLALuawB5XpvrJKLedg0kbq95+6JJnzd3JkCfcGEyIH
SBTPJ13poHpAxpHNwdFicabmUs9opKgjqVRQ94K2tRAfzvCtAUd0jrxWbyXk1xXv
Y+WlLoOEO5qnuweTDeY8ejcTWS8NdfCuGeB1MZNdA4r1/TzGCpgxmly0xAL6SqM+
AJj9rvlaIqcG7/RYs7Yu5SzCKQQcrfjZ3mQMhYFFkE72ZtQvty62CGiPgL6eTHrm
syHeSGoixbHCsnC/IknIIVm0+199EAR8cKfvdWc6QON8WS2VThRuN0bi1plobQZI
rSj99M0DvXVLWwIDAQABo3oweDAdBgNVHQ4EFgQUSEEj9Zzj78yM9uuhHIaRI2lA
+T4wHwYDVR0jBBgwFoAUp9kmR+Fc+Uo78fpcbJl+GIFThdIwEgYDVR0TAQH/BAgw
BgEB/wIBADAOBgNVHQ8BAf8EBAMCAYYwEgYKKwYBBAGC7BEBAQQEDAJDQTANBgkq
hkiG9w0BAQwFAAOCAgEAWT0CDnJ6mGBadg0w1cHwlJ/XK+J0K325CL4j6w9Kc5o4
vxan3B9dYN+QwRVgl19kP9SEMmbyH8BhYfsUYYJ+0+jX0RzEi4SGMWynzorbqtbP
8/rrgfChM9ymVwT1FNazz+oaFpv/kumAWxkR0sFreoXkbPW2YI5GISQl8fOEbXnK
CB/yLHSIOCK+nJFvNIbb3Mt5w3gm4N0cYvhL25K1Zkq4/J8KuHfM+9JJAMJeqrDq
qhx+gXgjMlPe2A+aZgTsnBD23x8GMA0L5W2tY0UCA5ZY0Aon/I2Q0cdAb3oCufYt
CAJQ4Cprf/dFIYG29V24LU7o9LRHXxUGQrBHRHfol+gU0gZlZuFmwxMTkbcr0F6A
QbO3BZuISZnsvOPvIxhEy0Xr2OEx8BRqAAExdl8F3tIj33aG8Xp0CFZx/+BvhSVl
p+CykqvsmgxyAyUhQzDgvYnVsAqljNKqygBjH4ZRE0XlnAsf4gu8Hol/sXukgxDW
iVGzXmgL3tVxEBShwsOUv+2xtVmiwKmNoClrI/ATzLjgK4qZY5xJhaoMGiUR+pK8
PrfrlCl81iX4ftg0n6NoVvoATq9f+Stsa3lBBLU8GsU4CYoHe93K6dJGxClgKurZ
AkpR8LbZ8SmBTeXpoCxN7zJeEv+TfDDFGFDf+uWL9Ujj9IW/o6L0oCQYpbRcJEg=
-----END CERTIFICATE-----
