Certificate:
    Data:
        Version: 3 (0x2)
        Serial Number:
            ec:92:f2:f6:e5:ac:f1:14
        Signature Algorithm: sha384WithRSAEncryption
        Issuer: C=US, ST=District of Columbia, L=Washington, O=Wireless Innovation Forum, OU=www.wirelessinnovation.org, CN=WInnForum RSA Operator CA-1
        Validity
            Not Before: Jun 28 01:34:02 2016 GMT
            Not After : Jun 23 01:34:02 2036 GMT
        Subject: C=US, ST=District of Columbia, L=Washington, O=Wireless Innovation Forum, OU=www.wirelessinnovation.org, CN=Operator End-Entity Example
        Subject Public Key Info:
            Public Key Algorithm: rsaEncryption
            RSA Public Key: (4096 bit)
                Modulus (4096 bit):
                    00:b6:90:70:17:0d:69:4f:5c:12:ed:30:b2:4f:3f:
                    74:3b:1c:d9:57:ca:95:b2:a8:10:49:3c:ee:b3:05:
                    f2:d9:28:40:db:20:ef:47:43:06:49:47:58:d0:a7:
                    5e:22:68:41:a7:f3:1d:2b:de:c0:e2:05:a6:84:04:
                    fb:18:1f:5a:1a:e3:37:e6:33:bb:d6:1a:91:6a:89:
                    c0:9a:01:5c:5b:94:d3:3a:08:07:9a:ee:18:47:62:
                    0f:62:74:fe:3a:78:de:a9:1c:c6:87:d5:de:af:80:
                    0d:25:79:05:d9:f0:a0:da:53:7d:4d:82:0c:61:43:
                    fb:ba:df:f0:73:af:7d:dd:0c:2e:e8:65:4d:5d:04:
                    ef:41:a8:6f:fd:6e:c6:8d:1a:cc:c5:09:9f:1f:e4:
                    76:97:23:f8:d7:c0:b5:c0:db:61:43:42:63:74:4e:
                    8a:1b:59:0f:ce:5a:ac:e7:76:62:1a:3b:d2:91:c9:
                    84:98:26:fb:42:f9:83:00:af:b1:2c:00:56:8d:6a:
                    a9:2b:92:43:4b:b8:91:6c:ec:f3:ad:21:cd:43:53:
                    1d:6f:6b:e8:b8:b3:3c:86:ed:2e:01:bc:a3:95:45:
                    59:bf:fb:2c:74:70:fc:86:0f:2a:1a:c5:5c:f7:38:
                    70:80:44:5b:77:a7:57:cf:fd:14:be:68:73:ba:b8:
                    32:47:09:8b:f8:78:15:13:32:55:28:0e:ea:6a:1a:
                    ca:a6:b6:a4:fe:4f:dd:b9:29:aa:e9:4e:ea:25:19:
                    12:05:3e:08:77:e5:0f:f5:12:b9:72:2c:5a:83:1c:
                    f1:ff:c8:f0:52:8b:07:a7:a5:47:3b:fe:04:9a:ae:
                    57:c4:3e:5e:3b:d0:c1:1c:3b:e3:dd:13:e3:43:89:
                    66:85:e2:19:73:21:cc:82:30:43:bd:f4:52:e0:69:
                    bc:b1:5a:ca:52:e6:fc:fd:34:73:51:07:66:96:3d:
                    1b:7b:85:ad:d9:f1:f9:65:f7:37:93:9d:c9:2c:ac:
                    a6:e5:66:2c:36:84:96:ce:a4:88:54:30:f7:90:03:
                    f9:bf:10:b1:45:27:3e:12:64:44:41:24:19:e5:b3:
                    fc:34:2f:f2:7f:27:51:e5:84:0f:65:52:4e:e8:70:
                    78:35:a1:4f:8d:5f:4c:49:7f:38:86:29:1c:f3:26:
                    fe:39:7b:04:9f:ad:e8:a2:8b:32:eb:65:69:47:04:
                    68:3b:fa:5a:2d:b9:8a:d2:63:db:77:ee:fc:30:82:
                    10:bc:5f:8e:7d:9a:e4:ba:8a:97:4a:14:3f:a7:22:
                    ff:7a:76:f2:0c:52:f1:94:9f:96:30:e2:09:f6:45:
                    23:f4:fc:65:ee:96:bf:9d:96:97:b2:e8:64:2a:d9:
                    b3:3d:67
                Exponent: 65537 (0x10001)
        X509v3 extensions:
            X509v3 Subject Key Identifier: 
                31:D2:BA:27:E3:9A:96:C9:31:F9:0E:51:0F:5C:AA:7A:80:7E:E4:56
            X509v3 Authority Key Identifier: 
                keyid:48:41:23:F5:9C:E3:EF:CC:8C:F6:EB:A1:1C:86:91:23:69:40:F9:3E

            X509v3 Basic Constraints: 
                CA:FALSE
            X509v3 Key Usage: critical
                Digital Signature, Key Encipherment
            X509v3 Extended Key Usage: 
                TLS Web Server Authentication
            ROLE: 
                ..OPERATOR
    Signature Algorithm: sha384WithRSAEncryption
        11:8c:3b:dc:22:7f:70:34:ec:d1:65:6e:32:12:89:21:18:ba:
        a8:25:dd:06:a4:30:4c:bb:9e:6e:11:30:95:6c:4a:f2:3f:65:
        b0:ae:41:8b:3c:9f:ec:76:c0:25:17:8b:d0:96:ed:56:d3:90:
        4b:ea:c4:be:5f:e6:f5:06:d9:8a:77:36:96:4c:4b:37:f7:21:
        a7:6f:66:87:7d:f1:dd:f5:d7:83:ab:39:ca:d0:05:17:00:73:
        ec:17:ba:f2:f6:36:6e:fe:e6:4f:94:9d:7f:92:5d:69:ca:d1:
        12:83:3b:6c:c9:3c:d7:41:d3:45:64:48:9b:6c:d6:91:71:27:
        4e:48:23:32:e8:91:2c:2b:9d:04:79:56:03:0a:2d:a1:f0:d8:
        93:08:4d:0d:d5:36:12:c5:00:40:f7:3a:56:08:aa:b7:59:66:
        f9:b6:00:a1:20:d0:dc:2e:4e:df:0a:af:55:03:db:c7:c3:17:
        df:68:87:3e:63:2a:49:c0:c8:8c:6e:e2:78:4d:64:27:cc:3f:
        96:4e:58:ef:30:e7:bb:98:09:cf:83:4e:7b:8a:ce:1b:53:33:
        e9:99:cd:53:01:ad:75:0f:6e:f7:82:b4:86:2b:05:3a:cb:1c:
        74:9f:25:f7:9a:7a:6e:fb:85:1e:0f:1d:98:13:61:f6:35:cd:
        08:d5:4e:84:72:16:37:70:5b:e9:0e:79:87:98:85:9f:5e:fb:
        bb:59:87:b6:42:34:c3:e0:aa:6b:78:7d:09:68:cc:8e:3e:3f:
        79:80:12:1c:4b:1e:fd:00:0a:fb:f0:78:2c:80:c5:22:71:94:
        5b:12:5c:af:f3:eb:6c:f5:72:55:31:be:bc:1e:da:d9:a6:22:
        9f:73:dd:d5:2d:62:a3:79:70:af:47:98:b8:e8:0b:05:fb:80:
        de:6b:e6:1a:ac:75:99:8b:99:82:e8:fe:d3:c9:54:df:12:d8:
        01:10:a1:ae:f8:f8:88:9f:c0:1a:98:04:44:79:e4:26:74:04:
        93:ed:11:da:3f:b7:fd:ac:17:47:56:48:18:f4:62:24:f2:84:
        ed:dd:cd:c9:9b:4f:b7:45:2d:72:d2:41:ff:a7:26:d1:8a:c9:
        17:35:49:01:6f:8f:fd:b7:53:d2:5a:db:3a:b9:18:e6:e6:2d:
        4e:8f:de:99:43:46:6a:16:1e:1d:d3:f9:33:dc:65:42:57:ca:
        74:89:1e:4f:00:1c:0d:91:fb:db:86:de:4e:96:98:e9:d8:bb:
        2a:5d:3f:9a:81:9c:34:9e:80:5a:ca:55:94:3d:9d:c6:1a:1d:
        7a:63:4a:36:49:8d:e6:6b:24:5b:9e:af:1f:5e:82:bd:d3:29:
        98:92:d9:97:9b:dd:1e:54
-----BEGIN CERTIFICATE-----
MIIGczCCBFugAwIBAgIJAOyS8vblrPEUMA0GCSqGSIb3DQEBDAUAMIGwMQswCQYD
VQQGEwJVUzEdMBsGA1UECAwURGlzdHJpY3Qgb2YgQ29sdW1iaWExEzARBgNVBAcM
Cldhc2hpbmd0b24xIjAgBgNVBAoMGVdpcmVsZXNzIElubm92YXRpb24gRm9ydW0x
IzAhBgNVBAsMGnd3dy53aXJlbGVzc2lubm92YXRpb24ub3JnMSQwIgYDVQQDDBtX
SW5uRm9ydW0gUlNBIE9wZXJhdG9yIENBLTEwHhcNMTYwNjI4MDEzNDAyWhcNMzYw
NjIzMDEzNDAyWjCBsDELMAkGA1UEBhMCVVMxHTAbBgNVBAgMFERpc3RyaWN0IG9m
IENvbHVtYmlhMRMwEQYDVQQHDApXYXNoaW5ndG9uMSIwIAYDVQQKDBlXaXJlbGVz
cyBJbm5vdmF0aW9uIEZvcnVtMSMwIQYDVQQLDBp3d3cud2lyZWxlc3Npbm5vdmF0
aW9uLm9yZzEkMCIGA1UEAwwbT3BlcmF0b3IgRW5kLUVudGl0eSBFeGFtcGxlMIIC
IjANBgkqhkiG9w0BAQEFAAOCAg8AMIICCgKCAgEAtpBwFw1pT1wS7TCyTz90OxzZ
V8qVsqgQSTzuswXy2ShA2yDvR0MGSUdY0KdeImhBp/MdK97A4gWmhAT7GB9aGuM3
5jO71hqRaonAmgFcW5TTOggHmu4YR2IPYnT+OnjeqRzGh9Xer4ANJXkF2fCg2lN9
TYIMYUP7ut/wc6993Qwu6GVNXQTvQahv/W7GjRrMxQmfH+R2lyP418C1wNthQ0Jj
dE6KG1kPzlqs53ZiGjvSkcmEmCb7QvmDAK+xLABWjWqpK5JDS7iRbOzzrSHNQ1Md
b2vouLM8hu0uAbyjlUVZv/ssdHD8hg8qGsVc9zhwgERbd6dXz/0UvmhzurgyRwmL
+HgVEzJVKA7qahrKprak/k/duSmq6U7qJRkSBT4Id+UP9RK5cixagxzx/8jwUosH
p6VHO/4Emq5XxD5eO9DBHDvj3RPjQ4lmheIZcyHMgjBDvfRS4Gm8sVrKUub8/TRz
UQdmlj0be4Wt2fH5Zfc3k53JLKym5WYsNoSWzqSIVDD3kAP5vxCxRSc+EmREQSQZ
5bP8NC/yfydR5YQPZVJO6HB4NaFPjV9MSX84hikc8yb+OXsEn63ooosy62VpRwRo
O/paLbmK0mPbd+78MIIQvF+OfZrkuoqXShQ/pyL/enbyDFLxlJ+WMOIJ9kUj9Pxl
7pa/nZaXsuhkKtmzPWcCAwEAAaOBjTCBijAdBgNVHQ4EFgQUMdK6J+Oalskx+Q5R
D1yqeoB+5FYwHwYDVR0jBBgwFoAUSEEj9Zzj78yM9uuhHIaRI2lA+T4wCQYDVR0T
BAIwADAOBgNVHQ8BAf8EBAMCBaAwEwYDVR0lBAwwCgYIKwYBBQUHAwEwGAYKKwYB
BAGC7BEBAQQKDAhPUEVSQVRPUjANBgkqhkiG9w0BAQwFAAOCAgEAEYw73CJ/cDTs
0WVuMhKJIRi6qCXdBqQwTLuebhEwlWxK8j9lsK5Bizyf7HbAJReL0JbtVtOQS+rE
vl/m9QbZinc2lkxLN/chp29mh33x3fXXg6s5ytAFFwBz7Be68vY2bv7mT5Sdf5Jd
acrREoM7bMk810HTRWRIm2zWkXEnTkgjMuiRLCudBHlWAwotofDYkwhNDdU2EsUA
QPc6Vgiqt1lm+bYAoSDQ3C5O3wqvVQPbx8MX32iHPmMqScDIjG7ieE1kJ8w/lk5Y
7zDnu5gJz4NOe4rOG1Mz6ZnNUwGtdQ9u94K0hisFOsscdJ8l95p6bvuFHg8dmBNh
9jXNCNVOhHIWN3Bb6Q55h5iFn177u1mHtkI0w+Cqa3h9CWjMjj4/eYASHEse/QAK
+/B4LIDFInGUWxJcr/PrbPVyVTG+vB7a2aYin3Pd1S1io3lwr0eYuOgLBfuA3mvm
Gqx1mYuZguj+08lU3xLYARChrvj4iJ/AGpgERHnkJnQEk+0R2j+3/awXR1ZIGPRi
JPKE7d3NyZtPt0UtctJB/6cm0YrJFzVJAW+P/bdT0lrbOrkY5uYtTo/emUNGahYe
HdP5M9xlQlfKdIkeTwAcDZH724beTpaY6di7Kl0/moGcNJ6AWspVlD2dxhodemNK
NkmN5mskW56vH16CvdMpmJLZl5vdHlQ=
-----END CERTIFICATE-----
