Certificate:
    Data:
        Version: 3 (0x2)
        Serial Number:
            ec:92:f2:f6:e5:ac:f1:19
        Signature Algorithm: sha384WithRSAEncryption
        Issuer: C=US, ST=District of Columbia, L=Washington, O=Wireless Innovation Forum, OU=www.wirelessinnovation.org, CN=WInnForum RSA Root CA-1
        Validity
            Not Before: Jun 28 01:34:20 2016 GMT
            Not After : Jun 23 01:34:20 2036 GMT
        Subject: C=US, ST=District of Columbia, L=Washington, O=Wireless Innovation Forum, OU=www.wirelessinnovation.org, CN=WInnForum RSA Device Manufacturer CA-1
        Subject Public Key Info:
            Public Key Algorithm: rsaEncryption
            RSA Public Key: (4096 bit)
                Modulus (4096 bit):
                    00:cc:86:42:fa:62:40:13:dc:cf:92:ad:b0:9f:c4:
                    ee:e4:b7:1d:f0:16:95:da:e8:5a:d8:2e:a2:5f:6f:
                    9d:2e:41:7b:9b:ae:f0:ce:00:84:b6:5e:fb:b6:32:
                    f5:19:ec:dd:7f:8d:c1:c5:f9:ec:7d:e3:15:8e:75:
                    b3:36:66:e6:05:ae:3e:97:99:f3:24:23:71:7a:9d:
                    fc:08:6e:d7:50:88:4f:b8:ee:64:7a:d9:bb:c3:73:
                    ba:60:a2:ab:f4:1c:41:9e:bd:b5:05:b4:32:aa:3e:
                    08:1d:56:12:02:e8:9b:a9:c1:10:75:3d:14:06:74:
                    44:ac:02:51:92:4d:88:af:b0:92:a2:b4:b3:a0:29:
                    8a:6f:53:7d:3b:c0:5f:91:8c:94:c3:30:fe:35:48:
                    77:26:16:c7:e2:da:52:0e:4e:86:62:ec:97:5d:56:
                    1f:23:33:4a:a4:e0:ec:73:d0:e0:e6:0f:e7:4e:ab:
                    56:0a:e3:c3:17:0c:4a:db:cb:3d:98:51:91:05:af:
                    08:5d:39:cd:8b:6c:55:b0:c1:42:ef:fe:4b:d3:c3:
                    d1:4f:e3:ca:9f:de:25:35:36:5f:52:64:2c:b3:79:
                    7e:18:10:01:7c:58:13:cb:34:54:fa:4b:f7:ad:c1:
                    2c:10:a3:ab:e3:4a:d3:5a:2a:a7:54:a7:b7:a3:4e:
                    2f:1e:9f:3a:8b:65:c0:7e:4a:5e:c6:53:21:31:aa:
                    ea:3d:61:12:0c:77:0c:79:bd:b4:a1:9a:77:d9:c1:
                    28:e2:6d:bc:a1:e2:3e:de:8a:7e:9c:71:cc:ef:00:
                    a1:48:91:91:1f:ab:1a:ee:0c:8b:9c:70:f3:d0:81:
                    aa:a4:32:ab:53:8e:6e:75:8d:66:88:b0:59:92:3c:
                    ec:4f:16:cf:37:69:af:cc:ef:39:4d:07:9c:5f:d0:
                    e1:2e:ba:61:fb:8a:eb:ca:73:29:af:1b:58:7e:d1:
                    9d:26:79:da:d8:15:77:db:b2:01:67:bb:97:8d:83:
                    a7:12:ac:4d:ff:96:ee:99:87:f8:e6:ac:06:d9:de:
                    93:14:98:25:f7:19:36:e9:1e:37:5e:3c:4e:85:25:
                    bd:b8:a4:d9:a2:6e:5c:36:98:62:a2:1a:ee:44:0f:
                    c2:85:cf:de:fa:17:48:b2:59:9c:23:0f:3e:be:39:
                    6a:16:67:8e:1a:d0:c1:af:ec:51:22:cb:ce:56:e2:
                    b4:9a:52:6a:53:fd:47:99:b8:8e:6f:bb:cf:32:33:
                    ce:27:3b:d6:18:ac:e1:f1:4b:b4:5b:61:fe:43:26:
                    20:22:bd:e0:0c:f3:44:e0:59:02:45:23:cd:ac:14:
                    75:be:ac:79:44:cc:d3:63:86:3c:c0:24:98:05:ed:
                    f7:0e:59
                Exponent: 65537 (0x10001)
        X509v3 extensions:
            X509v3 Subject Key Identifier: 
                39:50:63:B7:1F:26:AB:57:86:54:EC:09:77:7C:C0:E5:B1:E0:85:A9
            X509v3 Authority Key Identifier: 
                keyid:A7:D9:26:47:E1:5C:F9:4A:3B:F1:FA:5C:6C:99:7E:18:81:53:85:D2

            X509v3 Basic Constraints: critical
                CA:TRUE, pathlen:0
            X509v3 Key Usage: critical
                Digital Signature, Certificate Sign, CRL Sign
            ROLE: 
                ..CA
    Signature Algorithm: sha384WithRSAEncryption
        54:ca:b3:a7:37:32:a0:34:ee:ce:e1:d9:08:3e:af:a0:74:2c:
        79:24:3d:ab:e8:a9:68:c6:fd:0c:8e:2a:b8:6b:cd:8e:31:a4:
        b2:dc:d1:5d:08:7e:27:a7:06:86:ef:d1:40:bc:b3:b8:43:d5:
        12:f4:62:4d:8b:5c:d7:aa:a6:3a:d6:83:54:96:eb:53:5b:d4:
        8a:1f:0a:b8:2d:59:28:88:95:6a:21:34:d8:1f:fb:fa:b4:1d:
        35:91:5f:8e:26:28:d6:be:d1:51:f2:b8:59:0d:ec:8e:c9:65:
        1a:de:5e:65:31:53:81:88:0e:58:93:07:64:c9:2d:3f:b3:b2:
        2a:e9:54:7d:df:05:61:9b:e0:e9:86:0e:02:6b:15:ff:54:6b:
        5a:b7:26:09:ed:29:48:b9:63:3c:6a:68:ff:b7:51:cd:16:d2:
        96:7d:73:db:54:74:97:15:16:22:ae:c7:8a:d6:ee:e8:31:33:
        7c:93:1f:77:ce:18:7e:24:01:67:a0:eb:3a:c5:f3:a2:45:3d:
        ad:12:99:0e:8f:55:e9:eb:2b:2c:23:90:25:0a:5f:fe:fb:57:
        1a:ba:65:a0:cd:0e:bc:92:10:24:95:a5:d1:0b:73:a0:73:b5:
        2e:49:c8:4a:d2:55:be:89:94:aa:c9:5c:7b:56:ee:1c:30:e5:
        73:5d:af:ff:82:a3:51:32:6c:11:d4:61:02:f4:83:5f:2c:eb:
        93:41:38:1a:0a:b1:c1:5c:8f:9d:3c:0c:6b:98:2c:1c:b7:8b:
        fc:86:cc:c1:00:0a:18:23:3d:38:47:f3:e3:75:3a:60:b4:ac:
        81:86:cc:8a:3d:73:c0:c9:2c:61:c6:2b:66:36:4f:5d:08:55:
        1e:29:34:3f:09:1e:65:7b:53:ed:ab:8b:74:25:00:85:ff:93:
        ae:1c:68:bb:a5:c2:ea:6c:ab:7e:12:be:2f:de:27:3e:73:15:
        37:42:91:85:22:b3:bd:f7:38:5c:07:3f:8b:ca:7d:b4:0d:8d:
        e7:b7:04:23:20:71:b2:fa:16:d5:e6:34:2f:41:ab:b1:57:26:
        42:33:9e:97:4d:12:cb:36:96:9a:35:c6:ff:29:94:40:8e:8e:
        2e:e7:11:ce:de:db:26:03:d7:47:de:7b:85:49:95:8c:b5:60:
        a4:d9:a3:c8:15:4e:ce:f6:10:ce:05:c1:cc:80:97:26:ac:ad:
        10:b5:9d:b2:86:58:3e:11:1a:9b:39:33:1b:e7:4c:e9:4b:d1:
        e5:9d:26:a7:d3:aa:ec:37:fd:3c:01:08:6c:4d:e8:be:e0:25:
        0c:0f:ba:e4:82:47:91:f8:7f:ea:23:ea:55:63:dc:e3:c9:e7:
        f9:e6:33:e8:5d:68:50:23
-----BEGIN CERTIFICATE-----
MIIGZjCCBE6gAwIBAgIJAOyS8vblrPEZMA0GCSqGSIb3DQEBDAUAMIGsMQswCQYD
VQQGEwJVUzEdMBsGA1UECAwURGlzdHJpY3Qgb2YgQ29sdW1iaWExEzARBgNVBAcM
Cldhc2hpbmd0b24xIjAgBgNVBAoMGVdpcmVsZXNzIElubm92YXRpb24gRm9ydW0x
IzAhBgNVBAsMGnd3dy53aXJlbGVzc2lubm92YXRpb24ub3JnMSAwHgYDVQQDDBdX
SW5uRm9ydW0gUlNBIFJvb3QgQ0EtMTAeFw0xNjA2MjgwMTM0MjBaFw0zNjA2MjMw
MTM0MjBaMIG7MQswCQYDVQQGEwJVUzEdMBsGA1UECAwURGlzdHJpY3Qgb2YgQ29s
dW1iaWExEzARBgNVBAcMCldhc2hpbmd0b24xIjAgBgNVBAoMGVdpcmVsZXNzIElu
bm92YXRpb24gRm9ydW0xIzAhBgNVBAsMGnd3dy53aXJlbGVzc2lubm92YXRpb24u
b3JnMS8wLQYDVQQDDCZXSW5uRm9ydW0gUlNBIERldmljZSBNYW51ZmFjdHVyZXIg
Q0EtMTCCAiIwDQYJKoZIhvcNAQEBBQADggIPADCCAgoCggIBAMyGQvpiQBPcz5Kt
sJ/E7uS3HfAWldroWtguol9vnS5Be5uu8M4AhLZe+7Yy9Rns3X+NwcX57H3jFY51
szZm5gWuPpeZ8yQjcXqd/Ahu11CIT7juZHrZu8NzumCiq/QcQZ69tQW0Mqo+CB1W
EgLom6nBEHU9FAZ0RKwCUZJNiK+wkqK0s6Apim9TfTvAX5GMlMMw/jVIdyYWx+La
Ug5OhmLsl11WHyMzSqTg7HPQ4OYP506rVgrjwxcMStvLPZhRkQWvCF05zYtsVbDB
Qu/+S9PD0U/jyp/eJTU2X1JkLLN5fhgQAXxYE8s0VPpL963BLBCjq+NK01oqp1Sn
t6NOLx6fOotlwH5KXsZTITGq6j1hEgx3DHm9tKGad9nBKOJtvKHiPt6KfpxxzO8A
oUiRkR+rGu4Mi5xw89CBqqQyq1OObnWNZoiwWZI87E8Wzzdpr8zvOU0HnF/Q4S66
YfuK68pzKa8bWH7RnSZ52tgVd9uyAWe7l42DpxKsTf+W7pmH+OasBtnekxSYJfcZ
NukeN148ToUlvbik2aJuXDaYYqIa7kQPwoXP3voXSLJZnCMPPr45ahZnjhrQwa/s
USLLzlbitJpSalP9R5m4jm+7zzIzzic71his4fFLtFth/kMmICK94AzzROBZAkUj
zawUdb6seUTM02OGPMAkmAXt9w5ZAgMBAAGjejB4MB0GA1UdDgQWBBQ5UGO3Hyar
V4ZU7Al3fMDlseCFqTAfBgNVHSMEGDAWgBSn2SZH4Vz5Sjvx+lxsmX4YgVOF0jAS
BgNVHRMBAf8ECDAGAQH/AgEAMA4GA1UdDwEB/wQEAwIBhjASBgorBgEEAYLsEQEB
BAQMAkNBMA0GCSqGSIb3DQEBDAUAA4ICAQBUyrOnNzKgNO7O4dkIPq+gdCx5JD2r
6Kloxv0Mjiq4a82OMaSy3NFdCH4npwaG79FAvLO4Q9US9GJNi1zXqqY61oNUlutT
W9SKHwq4LVkoiJVqITTYH/v6tB01kV+OJijWvtFR8rhZDeyOyWUa3l5lMVOBiA5Y
kwdkyS0/s7Iq6VR93wVhm+Dphg4CaxX/VGtatyYJ7SlIuWM8amj/t1HNFtKWfXPb
VHSXFRYirseK1u7oMTN8kx93zhh+JAFnoOs6xfOiRT2tEpkOj1Xp6yssI5AlCl/+
+1caumWgzQ68khAklaXRC3Ogc7UuSchK0lW+iZSqyVx7Vu4cMOVzXa//gqNRMmwR
1GEC9INfLOuTQTgaCrHBXI+dPAxrmCwct4v8hszBAAoYIz04R/PjdTpgtKyBhsyK
PXPAySxhxitmNk9dCFUeKTQ/CR5le1Ptq4t0JQCF/5OuHGi7pcLqbKt+Er4v3ic+
cxU3QpGFIrO99zhcBz+Lyn20DY3ntwQjIHGy+hbV5jQvQauxVyZCM56XTRLLNpaa
Ncb/KZRAjo4u5xHO3tsmA9dH3nuFSZWMtWCk2aPIFU7O9hDOBcHMgJcmrK0QtZ2y
hlg+ERqbOTMb50zpS9HlnSan06rsN/08AQhsTei+4CUMD7rkgkeR+H/qI+pVY9zj
yef55jPoXWhQIw==
-----END CERTIFICATE-----
