Certificate:
    Data:
        Version: 3 (0x2)
        Serial Number:
            ec:92:f2:f6:e5:ac:f1:1a
        Signature Algorithm: sha384WithRSAEncryption
        Issuer: C=US, ST=District of Columbia, L=Washington, O=Wireless Innovation Forum, OU=www.wirelessinnovation.org, CN=WInnForum RSA Device Manufacturer CA-1
        Validity
            Not Before: Jun 28 01:34:25 2016 GMT
            Not After : Jun 23 01:34:25 2036 GMT
        Subject: C=US, ST=District of Columbia, L=Washington, O=Wireless Innovation Forum, OU=www.wirelessinnovation.org, CN=Device Manufacturer End-Entity Example
        Subject Public Key Info:
            Public Key Algorithm: rsaEncryption
            RSA Public Key: (4096 bit)
                Modulus (4096 bit):
                    00:d8:91:ca:1d:9e:ba:98:bb:02:4f:98:ac:38:d1:
                    01:de:49:ba:ff:a2:bc:c4:d6:da:8d:cd:93:df:58:
                    a7:57:1c:3d:15:69:c3:fa:37:45:5a:9b:38:8c:14:
                    bf:89:5a:7f:b2:5b:85:af:d3:51:46:80:d3:0f:dd:
                    eb:01:6c:f4:c7:89:d6:e6:a6:f3:53:ff:db:01:34:
                    cf:d9:2e:03:63:72:72:59:ae:63:35:f7:e2:ae:2c:
                    62:f6:2a:37:ac:8e:13:65:82:45:13:5e:25:36:e9:
                    0f:b9:d2:c2:6d:04:51:2c:ab:9a:81:c3:99:8f:d7:
                    91:24:7b:81:85:14:81:7f:cc:85:1d:32:0c:eb:04:
                    43:5a:08:b3:7e:fe:40:68:b3:8d:1b:59:d1:12:2c:
                    3b:57:e5:72:3b:c1:ea:63:27:33:a6:02:e1:2c:6f:
                    3e:9b:41:79:b9:a2:a7:11:af:2e:12:be:a1:4f:33:
                    ce:0c:ad:5f:d2:f8:e8:f5:76:5b:7c:70:86:c8:05:
                    09:dc:0e:3c:f0:82:e5:41:b9:d0:0f:55:3d:b3:d8:
                    f8:b2:26:8a:79:9a:ad:21:2e:7f:7c:27:20:48:ef:
                    e2:99:06:5f:b1:e0:59:93:77:ff:54:90:e8:1c:b9:
                    5c:69:b1:ca:82:36:bd:f8:04:e5:97:2d:82:e1:83:
                    e5:45:02:0f:57:0b:33:10:a4:4b:d9:f7:be:67:58:
                    9e:46:d3:d6:8a:a0:6a:1f:b1:28:b6:da:91:bc:14:
                    bd:41:ce:7e:bd:7c:34:0f:bc:27:f0:f0:53:3c:04:
                    e9:ea:7d:09:4d:a4:44:45:85:54:2b:6d:ab:9a:d2:
                    c9:3f:d0:01:f2:47:67:46:6a:16:8c:d3:4e:14:fe:
                    f1:8d:21:36:76:bb:e9:c4:81:a2:24:24:45:4d:ab:
                    be:41:d3:6c:cc:0c:cd:f0:bc:94:55:82:bd:94:90:
                    61:ad:50:6a:b0:95:b3:ce:3f:43:13:e6:08:16:ad:
                    ec:7a:70:62:8d:11:2b:6b:69:72:a9:55:07:d7:e9:
                    60:fd:04:34:ca:32:95:9c:1e:c7:40:33:7f:00:02:
                    67:c0:e1:cf:21:44:a8:53:7b:56:84:17:1e:9b:da:
                    f6:32:dd:08:44:5c:6f:fa:5e:ef:9d:6a:eb:b1:be:
                    30:ff:1c:b2:75:b9:65:c6:56:c8:9e:be:4f:19:59:
                    12:ff:f6:c1:76:0c:c6:86:af:3a:8c:85:6e:1e:11:
                    55:bc:99:5a:05:f3:1d:87:dd:02:02:5d:23:80:ac:
                    b6:54:f2:e5:bb:68:ea:61:cc:00:a5:f5:17:bd:1b:
                    98:98:34:0e:b2:c6:ba:5f:e9:65:f3:bf:e0:28:98:
                    53:08:9f
                Exponent: 65537 (0x10001)
        X509v3 extensions:
            X509v3 Subject Key Identifier: 
                69:59:37:CE:54:53:6E:12:4E:58:BB:FF:DC:5D:DD:6E:E9:92:75:2E
            X509v3 Authority Key Identifier: 
                keyid:39:50:63:B7:1F:26:AB:57:86:54:EC:09:77:7C:C0:E5:B1:E0:85:A9

            X509v3 Basic Constraints: 
                CA:FALSE
            X509v3 Key Usage: critical
                Digital Signature, Key Encipherment
            X509v3 Extended Key Usage: 
                TLS Web Server Authentication
            ROLE: 
                ..DEVICE
    Signature Algorithm: sha384WithRSAEncryption
        55:6c:40:98:ae:85:5d:f4:7f:f1:8c:45:7a:bb:e0:69:c7:68:
        54:01:d6:58:38:40:27:d9:3d:09:d8:2c:0b:9d:27:c3:69:ad:
        3f:91:35:1e:18:ed:f1:d9:f7:04:3f:87:25:9d:4d:f4:6b:10:
        5a:d5:fb:5d:17:a2:c2:8a:b6:48:cc:aa:c7:1a:4d:bf:13:08:
        26:a4:d7:7e:58:9e:85:5e:6f:cd:5e:08:4d:6e:d9:89:29:1a:
        b8:64:7d:73:d6:1a:39:78:65:85:98:e4:94:ed:2f:7e:13:dd:
        a9:80:39:1e:8f:13:f9:d9:f5:19:2a:b7:05:2f:4b:76:c4:f3:
        c8:7a:51:5e:7b:47:28:5a:c0:f9:95:66:a6:24:91:cb:d1:53:
        f9:d9:5a:79:61:af:92:4b:3c:88:04:47:14:82:72:90:81:e3:
        8a:4c:00:00:87:d3:2e:72:a8:1d:79:c8:b9:c5:82:97:e2:f6:
        7a:1c:c2:66:b7:58:99:94:0c:a7:7e:25:ae:28:60:9a:8c:02:
        83:92:b0:54:88:65:c5:f4:a3:23:fc:7d:3a:80:95:0d:25:87:
        26:d3:0e:f2:42:85:6e:10:4b:94:4c:21:d5:7d:2f:81:74:ea:
        66:26:1a:58:ca:12:f7:d2:e8:8c:29:63:d4:87:d7:43:95:1c:
        dd:4f:b8:77:08:de:ce:27:87:1f:6e:c6:dc:13:8b:c3:68:01:
        2c:0a:0c:7e:49:c8:44:b7:74:78:2f:04:0a:1f:73:4c:9f:67:
        5a:43:bb:32:0d:82:7c:61:bc:49:d8:92:1e:0c:b5:b4:46:9f:
        42:c4:59:6a:90:3d:40:94:3a:45:a0:2b:a4:99:09:67:a1:af:
        2d:01:e9:b4:5e:04:2b:42:b8:32:97:6f:5a:ff:6d:18:4b:d7:
        56:9d:0b:7f:89:43:31:22:18:24:63:de:3c:a1:ea:3e:ee:5d:
        9b:b4:02:c5:e7:e6:b4:01:dc:c7:2e:da:d9:36:4a:83:e0:85:
        75:44:76:71:3a:91:04:4c:4b:16:55:b3:5d:a6:a9:7b:e8:92:
        c2:52:b5:09:1f:76:44:04:07:8a:3b:b4:c5:8a:d2:fa:58:be:
        51:fd:30:99:a8:0d:68:d2:d1:f4:8e:69:97:8f:e9:75:8e:4b:
        58:29:c9:d6:9e:30:85:f8:f6:18:e8:0c:8c:a3:42:f4:5c:9f:
        c3:cf:85:c0:3a:02:f8:fb:39:5f:3b:7d:40:0e:8f:fe:0f:9c:
        93:5e:5e:01:bd:50:e0:d0:6a:7e:fd:55:ea:1d:f4:f8:43:ca:
        af:87:35:2c:48:2e:a4:f8:29:1e:8e:ed:41:90:c3:57:6b:42:
        a6:49:87:d8:9b:f7:ff:89
-----BEGIN CERTIFICATE-----
MIIGhzCCBG+gAwIBAgIJAOyS8vblrPEaMA0GCSqGSIb3DQEBDAUAMIG7MQswCQYD
VQQGEwJVUzEdMBsGA1UECAwURGlzdHJpY3Qgb2YgQ29sdW1iaWExEzARBgNVBAcM
Cldhc2hpbmd0b24xIjAgBgNVBAoMGVdpcmVsZXNzIElubm92YXRpb24gRm9ydW0x
IzAhBgNVBAsMGnd3dy53aXJlbGVzc2lubm92YXRpb24ub3JnMS8wLQYDVQQDDCZX
SW5uRm9ydW0gUlNBIERldmljZSBNYW51ZmFjdHVyZXIgQ0EtMTAeFw0xNjA2Mjgw
MTM0MjVaFw0zNjA2MjMwMTM0MjVaMIG7MQswCQYDVQQGEwJVUzEdMBsGA1UECAwU
RGlzdHJpY3Qgb2YgQ29sdW1iaWExEzARBgNVBAcMCldhc2hpbmd0b24xIjAgBgNV
BAoMGVdpcmVsZXNzIElubm92YXRpb24gRm9ydW0xIzAhBgNVBAsMGnd3dy53aXJl
bGVzc2lubm92YXRpb24ub3JnMS8wLQYDVQQDDCZEZXZpY2UgTWFudWZhY3R1cmVy
IEVuZC1FbnRpdHkgRXhhbXBsZTCCAiIwDQYJKoZIhvcNAQEBBQADggIPADCCAgoC
ggIBANiRyh2eupi7Ak+YrDjRAd5Juv+ivMTW2o3Nk99Yp1ccPRVpw/o3RVqbOIwU
v4laf7Jbha/TUUaA0w/d6wFs9MeJ1uam81P/2wE0z9kuA2NyclmuYzX34q4sYvYq
N6yOE2WCRRNeJTbpD7nSwm0EUSyrmoHDmY/XkSR7gYUUgX/MhR0yDOsEQ1oIs37+
QGizjRtZ0RIsO1flcjvB6mMnM6YC4SxvPptBebmipxGvLhK+oU8zzgytX9L46PV2
W3xwhsgFCdwOPPCC5UG50A9VPbPY+LIminmarSEuf3wnIEjv4pkGX7HgWZN3/1SQ
6By5XGmxyoI2vfgE5ZctguGD5UUCD1cLMxCkS9n3vmdYnkbT1oqgah+xKLbakbwU
vUHOfr18NA+8J/DwUzwE6ep9CU2kREWFVCttq5rSyT/QAfJHZ0ZqFozTThT+8Y0h
Nna76cSBoiQkRU2rvkHTbMwMzfC8lFWCvZSQYa1QarCVs84/QxPmCBat7HpwYo0R
K2tpcqlVB9fpYP0ENMoylZwex0AzfwACZ8DhzyFEqFN7VoQXHpva9jLdCERcb/pe
751q67G+MP8csnW5ZcZWyJ6+TxlZEv/2wXYMxoavOoyFbh4RVbyZWgXzHYfdAgJd
I4CstlTy5bto6mHMAKX1F70bmJg0DrLGul/pZfO/4CiYUwifAgMBAAGjgYswgYgw
HQYDVR0OBBYEFGlZN85UU24STli7/9xd3W7pknUuMB8GA1UdIwQYMBaAFDlQY7cf
JqtXhlTsCXd8wOWx4IWpMAkGA1UdEwQCMAAwDgYDVR0PAQH/BAQDAgWgMBMGA1Ud
JQQMMAoGCCsGAQUFBwMBMBYGCisGAQQBguwRAQEECAwGREVWSUNFMA0GCSqGSIb3
DQEBDAUAA4ICAQBVbECYroVd9H/xjEV6u+Bpx2hUAdZYOEAn2T0J2CwLnSfDaa0/
kTUeGO3x2fcEP4clnU30axBa1ftdF6LCirZIzKrHGk2/EwgmpNd+WJ6FXm/NXghN
btmJKRq4ZH1z1ho5eGWFmOSU7S9+E92pgDkejxP52fUZKrcFL0t2xPPIelFee0co
WsD5lWamJJHL0VP52Vp5Ya+SSzyIBEcUgnKQgeOKTAAAh9Mucqgdeci5xYKX4vZ6
HMJmt1iZlAynfiWuKGCajAKDkrBUiGXF9KMj/H06gJUNJYcm0w7yQoVuEEuUTCHV
fS+BdOpmJhpYyhL30uiMKWPUh9dDlRzdT7h3CN7OJ4cfbsbcE4vDaAEsCgx+SchE
t3R4LwQKH3NMn2daQ7syDYJ8YbxJ2JIeDLW0Rp9CxFlqkD1AlDpFoCukmQlnoa8t
Aem0XgQrQrgyl29a/20YS9dWnQt/iUMxIhgkY948oeo+7l2btALF5+a0AdzHLtrZ
NkqD4IV1RHZxOpEETEsWVbNdpql76JLCUrUJH3ZEBAeKO7TFitL6WL5R/TCZqA1o
0tH0jmmXj+l1jktYKcnWnjCF+PYY6AyMo0L0XJ/Dz4XAOgL4+zlfO31ADo/+D5yT
Xl4BvVDg0Gp+/VXqHfT4Q8qvhzUsSC6k+Ckeju1BkMNXa0KmSYfYm/f/iQ==
-----END CERTIFICATE-----
