Certificate:
    Data:
        Version: 3 (0x2)
        Serial Number: 13020912872834796973 (0xb4b3934524a10dad)
    Signature Algorithm: sha256WithRSAEncryption
        Issuer: C=US, ST=CA, O=WinnForum, OU=WG4, CN=wirelessinnovation.org
        Validity
            Not Before: Oct 23 23:15:59 2015 GMT
            Not After : Mar 10 23:15:59 2043 GMT
        Subject: C=US, ST=CA, O=WinnForum, OU=WG4, CN=wirelessinnovation.org
        Subject Public Key Info:
            Public Key Algorithm: rsaEncryption
                Public-Key: (2048 bit)
                Modulus:
                    00:ea:f8:ee:d1:0c:25:0d:7e:99:6a:84:39:a5:18:
                    3a:a7:47:30:c6:1e:18:54:30:42:70:d7:53:3a:88:
                    01:36:10:ae:2d:b7:fa:95:27:a5:f6:d4:89:d4:a0:
                    30:d3:2e:e1:ad:a9:1f:c0:7f:cd:2a:dd:1c:84:97:
                    d3:84:a3:79:43:ed:b7:bd:50:d8:c4:a3:62:fd:a6:
                    96:d6:d0:43:36:92:1f:cd:62:aa:f1:93:97:19:3d:
                    d8:e0:6f:17:a2:4a:b1:f0:4e:56:43:90:db:90:70:
                    99:48:9a:02:9a:48:b8:01:2e:cc:a0:aa:e1:f1:d8:
                    ac:3d:ac:f7:f8:e6:eb:01:c5:e4:d7:96:7f:9c:79:
                    be:2f:c4:67:88:17:c8:a6:e7:d7:2a:62:53:ac:e1:
                    1c:aa:d4:ff:b4:a6:4b:14:a3:69:d4:34:75:a3:68:
                    39:9a:c7:e0:6d:f7:6a:d1:fc:a1:8f:56:82:57:33:
                    cb:3a:6f:71:ab:4d:51:72:24:be:f3:9b:13:fb:66:
                    47:ab:9b:89:53:e5:cd:0b:cc:0c:d8:47:36:32:8e:
                    e0:f4:dd:24:7c:69:6b:9c:46:4f:58:a5:b3:7a:2a:
                    69:51:06:7f:4f:0b:50:89:d5:9d:ab:8a:62:48:7c:
                    47:fa:58:1c:a6:e9:53:f9:a9:b3:9d:4a:e5:59:5a:
                    fd:67
                Exponent: 65537 (0x10001)
        X509v3 extensions:
            X509v3 Subject Key Identifier: 
                FF:10:3E:E5:5E:A0:C6:31:97:3A:EC:75:2A:A8:5A:CF:2D:40:1A:03
            X509v3 Authority Key Identifier: 
                keyid:FF:10:3E:E5:5E:A0:C6:31:97:3A:EC:75:2A:A8:5A:CF:2D:40:1A:03
                DirName:/C=US/ST=CA/O=WinnForum/OU=WG4/CN=wirelessinnovation.org
                serial:B4:B3:93:45:24:A1:0D:AD

            X509v3 Subject Alternative Name: 
                <EMPTY>

            X509v3 Basic Constraints: critical
                CA:TRUE
            sas_role_oid: 
                ..ROLE:CA
            sas_test_oid: 
                ..TEST:TRUE
    Signature Algorithm: sha256WithRSAEncryption
         d2:34:b0:9f:af:83:9b:5b:cf:77:2f:f8:6b:ce:0d:a1:a3:6b:
         ee:b6:26:4c:58:44:a1:46:ee:42:1c:10:03:17:39:85:9c:88:
         2d:a3:30:be:49:92:31:da:d4:d1:8e:7f:12:14:cf:7c:d7:24:
         f0:49:89:11:82:37:71:35:7c:b4:cf:97:3d:36:53:2d:7e:a1:
         23:1d:60:7c:82:f4:25:0c:51:55:e7:c6:1c:af:be:cc:92:05:
         6b:63:94:6f:5d:1e:9b:0c:38:13:49:26:b2:cc:0a:f5:bb:3f:
         a6:5d:f2:f7:a5:88:c6:76:2f:10:a7:ff:30:a5:81:64:3d:aa:
         03:42:2b:7a:51:cd:40:b8:06:bd:5e:8d:04:b4:dc:91:79:83:
         8c:ef:f9:c8:c9:92:95:a6:74:42:58:97:52:60:c3:d3:4e:ee:
         56:ec:eb:56:02:f7:24:03:82:8c:da:02:89:1f:35:6e:0d:79:
         2f:c5:0b:c4:7c:1c:55:f8:d6:4b:2d:f8:d3:6c:3b:db:7c:5f:
         17:ef:1d:35:1b:87:2d:1f:17:df:57:66:4c:52:db:9f:b6:59:
         d8:47:01:76:a4:22:92:78:02:00:b4:65:6c:f5:cd:c7:32:af:
         90:0d:2b:7b:b3:45:18:9a:3a:15:ac:45:47:06:56:b2:0b:de:
         00:30:e0:68
-----BEGIN CERTIFICATE-----
MIIERTCCAy2gAwIBAgIJALSzk0UkoQ2tMA0GCSqGSIb3DQEBCwUAMF0xCzAJBgNV
BAYTAlVTMQswCQYDVQQIDAJDQTESMBAGA1UECgwJV2lubkZvcnVtMQwwCgYDVQQL
DANXRzQxHzAdBgNVBAMMFndpcmVsZXNzaW5ub3ZhdGlvbi5vcmcwHhcNMTUxMDIz
MjMxNTU5WhcNNDMwMzEwMjMxNTU5WjBdMQswCQYDVQQGEwJVUzELMAkGA1UECAwC
Q0ExEjAQBgNVBAoMCVdpbm5Gb3J1bTEMMAoGA1UECwwDV0c0MR8wHQYDVQQDDBZ3
aXJlbGVzc2lubm92YXRpb24ub3JnMIIBIjANBgkqhkiG9w0BAQEFAAOCAQ8AMIIB
CgKCAQEA6vju0QwlDX6ZaoQ5pRg6p0cwxh4YVDBCcNdTOogBNhCuLbf6lSel9tSJ
1KAw0y7hrakfwH/NKt0chJfThKN5Q+23vVDYxKNi/aaW1tBDNpIfzWKq8ZOXGT3Y
4G8Xokqx8E5WQ5DbkHCZSJoCmki4AS7MoKrh8disPaz3+ObrAcXk15Z/nHm+L8Rn
iBfIpufXKmJTrOEcqtT/tKZLFKNp1DR1o2g5msfgbfdq0fyhj1aCVzPLOm9xq01R
ciS+85sT+2ZHq5uJU+XNC8wM2Ec2Mo7g9N0kfGlrnEZPWKWzeippUQZ/TwtQidWd
q4piSHxH+lgcpulT+amznUrlWVr9ZwIDAQABo4IBBjCCAQIwHQYDVR0OBBYEFP8Q
PuVeoMYxlzrsdSqoWs8tQBoDMIGPBgNVHSMEgYcwgYSAFP8QPuVeoMYxlzrsdSqo
Ws8tQBoDoWGkXzBdMQswCQYDVQQGEwJVUzELMAkGA1UECAwCQ0ExEjAQBgNVBAoM
CVdpbm5Gb3J1bTEMMAoGA1UECwwDV0c0MR8wHQYDVQQDDBZ3aXJlbGVzc2lubm92
YXRpb24ub3JnggkAtLOTRSShDa0wCQYDVR0RBAIwADAPBgNVHRMBAf8EBTADAQH/
MBcGCisGAQQBguwRAQEECQwHUk9MRTpDQTAaBgsrBgEEAYLsEQGHZwQLDAlURVNU
OlRSVUUwDQYJKoZIhvcNAQELBQADggEBANI0sJ+vg5tbz3cv+GvODaGja+62JkxY
RKFG7kIcEAMXOYWciC2jML5JkjHa1NGOfxIUz3zXJPBJiRGCN3E1fLTPlz02Uy1+
oSMdYHyC9CUMUVXnxhyvvsySBWtjlG9dHpsMOBNJJrLMCvW7P6Zd8veliMZ2LxCn
/zClgWQ9qgNCK3pRzUC4Br1ejQS03JF5g4zv+cjJkpWmdEJYl1Jgw9NO7lbs61YC
9yQDgozaAokfNW4NeS/FC8R8HFX41kst+NNsO9t8XxfvHTUbhy0fF99XZkxS25+2
WdhHAXakIpJ4AgC0ZWz1zccyr5ANK3uzRRiaOhWsRUcGVrIL3gAw4Gg=
-----END CERTIFICATE-----
